L251 LINKER/LOCATER V4.66.93.0                                                          12/22/2024  10:45:14  PAGE 1


L251 LINKER/LOCATER V4.66.93.0, INVOKED BY:
D:\COMPILER\KEIL_V5\C251\BIN\L251.EXE .\Objects\functions.obj, .\Objects\main.obj, .\Objects\servo.obj, .\Objects\sounds
>> .obj, .\Objects\commutate.obj, .\Objects\eeprom.obj, .\Objects\input.obj, .\Objects\peripherals.obj, .\Objects\phaseo
>> uts.obj, .\Objects\stc8051u_it.obj, .\Mcu\8051u\Lib\AI8051U_32_MDU32.LIB, .\Mcu\8051u\Lib\AI8051U_32_TFPU.LIB TO .\Ob
>> jects\AM32_AI8051U PRINT (.\Objects\AM32_AI8051U.map) CASE RESERVE (0XFF0003-0XFF1003) CLASSES (EDATA (0X0-0X7FF), HD
>> ATA (0X0-0X7FF))


CPU MODE:     251 SOURCE MODE
INTR FRAME:   4 BYTES SAVED ON INTERRUPT
MEMORY MODEL: XSMALL WITH FLOATING POINT ARITHMETIC


INPUT MODULES INCLUDED:
  .\Objects\functions.obj (functions)
         COMMENT TYPE 0: C251 V5.04b
  .\Objects\main.obj (main)
         COMMENT TYPE 0: C251 V5.04b
  .\Objects\servo.obj (servo)
         COMMENT TYPE 0: C251 V5.04b
  .\Objects\sounds.obj (sounds)
         COMMENT TYPE 0: C251 V5.04b
  .\Objects\commutate.obj (commutate)
         COMMENT TYPE 0: C251 V5.04b
  .\Objects\eeprom.obj (eeprom)
         COMMENT TYPE 0: C251 V5.04b
  .\Objects\input.obj (input)
         COMMENT TYPE 0: C251 V5.04b
  .\Objects\peripherals.obj (peripherals)
         COMMENT TYPE 0: C251 V5.04b
  .\Objects\phaseouts.obj (phaseouts)
         COMMENT TYPE 0: C251 V5.04b
  .\Objects\stc8051u_it.obj (stc8051u_it)
         COMMENT TYPE 0: C251 V5.04b
  .\Mcu\8051u\Lib\AI8051U_32_MDU32.LIB (AI8051U_32_MDU32)
         COMMENT TYPE 0: A251 V4.69.13.0
  .\Mcu\8051u\Lib\AI8051U_32_TFPU.LIB (AI8051U_32_TFPU)
         COMMENT TYPE 0: A251 V4.69.13.0
  D:\COMPILER\KEIL_V5\C251\LIB\C2SXS.LIB (?C_START)
         COMMENT TYPE 0: A251 V4.69.6.0
  D:\COMPILER\KEIL_V5\C251\LIB\C2SXS.LIB (?C?INITEDATA)
         COMMENT TYPE 0: A251 V4.69.6.0
  D:\COMPILER\KEIL_V5\C251\LIB\C2SXS.LIB (?C?INITHDATA)
         COMMENT TYPE 0: A251 V4.69.6.0
  D:\COMPILER\KEIL_V5\C251\LIB\C2SXS.LIB (?C?SIDIV)
         COMMENT TYPE 0: A251 V4.69.6.0
  D:\COMPILER\KEIL_V5\C251\LIB\C2SXS.LIB (STRNCPY)
         COMMENT TYPE 0: C251 V5.58.7
  D:\COMPILER\KEIL_V5\C251\LIB\C2SXS.LIB (memcmp)
         COMMENT TYPE 0: C251 V5.58.7
  D:\COMPILER\KEIL_V5\C251\LIB\C2SXS.LIB (memcpy)
         COMMENT TYPE 0: C251 V5.58.7
  D:\COMPILER\KEIL_V5\C251\LIB\C2SXS.LIB (?C?INITEDATA_END)
         COMMENT TYPE 0: A251 V4.69.6.0
  D:\COMPILER\KEIL_V5\C251\LIB\C2SXS.LIB (?C?INITHDATA_END)
         COMMENT TYPE 0: A251 V4.69.6.0


ACTIVE MEMORY CLASSES OF MODULE:  .\Objects\AM32_AI8051U (functions)

BASE        START       END         USED      MEMORY CLASS
==========================================================
000000H     000000H     0007FFH     0001FDH   EDATA
000000H     000000H     0007FFH               HDATA
FF0000H     FF0000H     FFFFFFH     0038ABH   CODE
000000H     FF0000H     FFFFFFH     000A3DH   HCONST
L251 LINKER/LOCATER V4.66.93.0                                                        12/22/2024  10:45:14  PAGE 2


010000H     010000H     01FFFFH     0007DBH   XDATA
000000H     000000H     00007FH     000020H   DATA


MEMORY MAP OF MODULE:  .\Objects\AM32_AI8051U (functions)


START     STOP      LENGTH    ALIGN  RELOC    MEMORY CLASS   SEGMENT NAME
=========================================================================
000000H   000007H   000008H   ---    AT..     DATA           "REG BANK 0"
000008H   00000FH   000008H   ---    AT..     DATA           "REG BANK 1"
000010H   000017H   000008H   ---    AT..     DATA           "REG BANK 2"
000018H   00001FH   000008H   ---    AT..     DATA           "REG BANK 3"
000020H   000068H   000049H   BYTE   UNIT     EDATA          ?ED?EEPROM
000069H   0000A4H   00003CH   BYTE   UNIT     EDATA          ?ED?COMMUTATE
0000A5H   0000DBH   000037H   BYTE   UNIT     EDATA          ?ED?MAIN
0000DCH   000104H   000029H   BYTE   UNIT     EDATA          ?ED?INPUT
000105H   000110H   00000CH   BYTE   UNIT     EDATA          ?ED?PHASEOUTS
000111H   00011BH   00000BH   BYTE   UNIT     EDATA          ?ED?SERVO
00011CH   00011CH   000001H   BYTE   UNIT     EDATA          ?ED?STC8051U_IT
00011DH   00021CH   000100H   BYTE   UNIT     EDATA          ?STACK
00021DH   00FFFFH   00FDE3H   ---    ---      **GAP**
010000H   0105ABH   0005ACH   BYTE   INSEG    XDATA          ?XD?COMMUTATE
0105ACH   0106ABH   000100H   BYTE   INSEG    XDATA          ?XD?INPUT
0106ACH   01075FH   0000B4H   BYTE   INSEG    XDATA          ?XD?EEPROM
010760H   0107D8H   000079H   BYTE   INSEG    XDATA          ?XD?MAIN
0107D9H   0107DAH   000002H   BYTE   INSEG    XDATA          ?XD?SOUNDS
0107DBH   FEFFFFH   FDF825H   ---    ---      **GAP**
FF0000H   FF0002H   000003H   ---    OFFS..   CODE           ?CO?start251?4
FF0003H   FF1003H   001001H   ---    ---      *** RESERVED MEMORY ***
FF1004H   FF100AH   000007H   BYTE   UNIT     CODE           ?PR?FCHS?AI8051U_32_TFPU
FF100BH   FF100DH   000003H   ---    OFFS..   CODE           ?PR?IV?1
FF100EH   FF109DH   000090H   BYTE   INSEG    CODE           ?PR?PLAYDUSKINGTUNE?_?SOUNDS
FF109EH   FF10A1H   000004H   BYTE   UNIT     CODE           ?PR?LMUL?AI8051U_32_MDU32
FF10A2H   FF10A2H   000001H   BYTE   INSEG    CODE           ?PR?SETINPUTPOLARITYRISING?_?INPUT
FF10A3H   FF10A5H   000003H   ---    OFFS..   CODE           ?PR?IV?20
FF10A6H   FF10D8H   000033H   BYTE   INSEG    CODE           ?PR?CMP_ISR?_?STC8051U_IT
FF10D9H   FF10D9H   000001H   BYTE   INSEG    CODE           ?PR?ENABLEHALFTRANSFERINT?_?INPUT
FF10DAH   FF10DAH   000001H   ---    ---      **GAP**
FF10DBH   FF10DDH   000003H   ---    OFFS..   CODE           ?PR?IV?27
FF10DEH   FF1145H   000068H   BYTE   INSEG    CODE           ?PR?CHECKDEVICEINFO?_?MAIN
FF1146H   FF1149H   000004H   BYTE   UNIT     CODE           ?PR?ULDIV?AI8051U_32_MDU32
FF114AH   FF114AH   000001H   ---    ---      **GAP**
FF114BH   FF114DH   000003H   ---    OFFS..   CODE           ?PR?IV?41
FF114EH   FF1A02H   0008B5H   BYTE   INSEG    CODE           ?PR?SETINPUT?_?INPUT
FF1A03H   FF20BCH   0006BAH   BYTE   INSEG    CODE           ?PR?MAIN?MAIN
FF20BDH   FF25D0H   000514H   BYTE   INSEG    CODE           ?PR?LOADEEPROMSETTINGS?_?EEPROM
FF25D1H   FF29F2H   000422H   BYTE   INSEG    CODE           ?PR?TWENTYKHZROUTINE?_?MAIN
FF29F3H   FF2CF7H   000305H   BYTE   INSEG    CODE           ?PR?COMPUTESERVOINPUT?_?SERVO
FF2CF8H   FF2E9EH   0001A7H   BYTE   INSEG    CODE           ?PR?ADVANCEINCREMENT?_?COMMUTATE
FF2E9FH   FF2FF4H   000156H   BYTE   INSEG    CODE           ?PR?DOPIDCALCULATIONS?_?FUNCTIONS
FF2FF5H   FF312AH   000136H   BYTE   INSEG    CODE           ?PR?PWMA_INIT?_?PERIPHERALS
FF312BH   FF3257H   00012DH   BYTE   INSEG    CODE           ?PR?GPIO_INIT?_?PERIPHERALS
FF3258H   FF336AH   000113H   BYTE   INSEG    CODE           ?PR?SAVE_FLASH_NOLIB?_?EEPROM
FF336BH   FF3476H   00010CH   BYTE   INSEG    CODE           ?PR?ZCFOUNDROUTINE?_?COMMUTATE
FF3477H   FF357FH   000109H   BYTE   INSEG    CODE           ?PR?CMP_INIT?_?PERIPHERALS
FF3580H   FF3675H   0000F6H   BYTE   INSEG    CODE           ?PR?PLAYBLUEJAYTUNE?_?SOUNDS
FF3676H   FF3768H   0000F3H   BYTE   INSEG    CODE           ?PR?DETECTINPUT?_?INPUT
FF3769H   FF3854H   0000ECH   BYTE   INSEG    CODE           ?PR?INTERRUPTROUTINE?_?COMMUTATE
FF3855H   FF392CH   0000D8H   BYTE   INSEG    CODE           ?PR?COMMUTATE?_?COMMUTATE
FF392DH   FF39E8H   0000BCH   BYTE   INSEG    CODE           ?PR?UN_PWMB_INIT?_?PERIPHERALS
FF39E9H   FF3A98H   0000B0H   BYTE   INSEG    CODE           ?PR?TRANSFERCOMPLETE?_?INPUT
FF3A99H   FF3B45H   0000ADH   BYTE   INSEG    CODE           ?PR?PWMB_ISR?_?STC8051U_IT
FF3B46H   FF3BE5H   0000A0H   BYTE   INSEG    CODE           ?PR?SAVEEEPROMSETTINGS?_?EEPROM
FF3BE6H   FF3C73H   00008EH   BYTE   INSEG    CODE           ?PR?PERIODELAPSEDCALLBACK?_?COMMUTATE
L251 LINKER/LOCATER V4.66.93.0                                                        12/22/2024  10:45:14  PAGE 3


FF3C74H   FF3CFAH   000087H   BYTE   INSEG    CODE           ?PR?DELAYMILLIS?_?FUNCTIONS
FF3CFBH   FF3D6FH   000075H   BYTE   INSEG    CODE           ?PR?PLAYSTARTUPTUNE?_?SOUNDS
FF3D70H   FF3DE3H   000074H   BYTE   INSEG    CODE           ?PR?PLAYBRUSHEDSTARTUPTUNE?_?SOUNDS
FF3DE4H   FF3E57H   000074H   BYTE   INSEG    CODE           ?PR?PLAYBEACONTUNE3?_?SOUNDS
FF3E58H   FF3E6AH   000013H   BYTE   UNIT     CODE           ?C_C51STARTUP
FF3E6BH   FF3EC4H   00005AH   BYTE   UNIT     CODE           ?C_C51STARTUP?2
FF3EC5H   FF3EC7H   000003H   BYTE   UNIT     CODE           ?C_C51STARTUP?3
FF3EC8H   FF3F2DH   000066H   BYTE   INSEG    CODE           ?PR?TMR11_INIT?_?PERIPHERALS
FF3F2EH   FF3F92H   000065H   BYTE   INSEG    CODE           ?PR?GETBEMFSTATE?_?COMMUTATE
FF3F93H   FF3FF3H   000061H   BYTE   INSEG    CODE           ?PR?CONFIGSYSTEMCLOCK?_?PERIPHERALS
FF3FF4H   FF404DH   00005AH   BYTE   INSEG    CODE           ?PR?PLAYINPUTTUNE2?_?SOUNDS
FF404EH   FF40A4H   000057H   BYTE   INSEG    CODE           ?PR?PLAYINPUTTUNE?_?SOUNDS
FF40A5H   FF40F9H   000055H   BYTE   INSEG    CODE           ?PR?PLAYBJNOTE?_?SOUNDS
FF40FAH   FF4149H   000050H   BYTE   INSEG    CODE           ?PR?RECEIVEDSHOTDMA?_?INPUT
FF414AH   FF4196H   00004DH   BYTE   INSEG    CODE           ?PR?RESETINPUTCAPTURETIMER?_?INPUT
FF4197H   FF41E1H   00004BH   BYTE   INSEG    CODE           ?PR?MAP?_?FUNCTIONS
FF41E2H   FF422AH   000049H   BYTE   INSEG    CODE           ?PR?SET_DUTY_CYCLE_ALL?_?PERIPHERALS
FF422BH   FF426FH   000045H   BYTE   INSEG    CODE           ?PR?PLAYDEFAULTTONE?_?SOUNDS
FF4270H   FF42B4H   000045H   BYTE   INSEG    CODE           ?PR?PLAYCHANGEDTONE?_?SOUNDS
FF42B5H   FF42EFH   00003BH   BYTE   INSEG    CODE           ?PR?PHASEAPWM?_?PHASEOUTS
FF42F0H   FF432AH   00003BH   BYTE   INSEG    CODE           ?PR?PHASEBPWM?_?PHASEOUTS
FF432BH   FF4365H   00003BH   BYTE   INSEG    CODE           ?PR?PHASECPWM?_?PHASEOUTS
FF4366H   FF4397H   000032H   BYTE   UNIT     CODE           ?C?LIB_CODE
FF4398H   FF43C7H   000030H   BYTE   INSEG    CODE           ?PR?STRNCPY?_?STRNCPY
FF43C8H   FF43F6H   00002FH   BYTE   INSEG    CODE           ?PR?MEMCMP?_?MEMCMP
FF43F7H   FF4424H   00002EH   BYTE   INSEG    CODE           ?PR?DELAYMICROS?_?FUNCTIONS
FF4425H   FF4452H   00002EH   BYTE   INSEG    CODE           ?PR?STARTMOTOR?_?COMMUTATE
FF4453H   FF447FH   00002DH   BYTE   INSEG    CODE           ?PR?CHECKSERVO?_?SERVO
FF4480H   FF44A9H   00002AH   BYTE   INSEG    CODE           ?PR?SET_PRESCALER_PWM?_?PERIPHERALS
FF44AAH   FF44D1H   000028H   BYTE   INSEG    CODE           ?PR?TMR0_INIT?_?PERIPHERALS
FF44D2H   FF44F8H   000027H   BYTE   INSEG    CODE           ?PR?TMR4_ISR?_?STC8051U_IT
FF44F9H   FF451FH   000027H   BYTE   INSEG    CODE           ?PR?TMR0_ISR?_?STC8051U_IT
FF4520H   FF4544H   000025H   BYTE   INSEG    CODE           ?PR?MEMCPY?_?MEMCPY
FF4545H   FF4565H   000021H   BYTE   INSEG    CODE           ?PR?TMR1_INIT?_?PERIPHERALS
FF4566H   FF4584H   00001FH   BYTE   INSEG    CODE           ?PR?INITCOREPERIPHERALS?_?PERIPHERALS
FF4585H   FF45A1H   00001DH   BYTE   INSEG    CODE           ?PR?GETBLUEJAYNOTEFREQUENCY?_?SOUNDS
FF45A2H   FF45BEH   00001DH   BYTE   INSEG    CODE           ?PR?SET_AUTO_RELOAD_PWM?_?PERIPHERALS
FF45BFH   FF45DBH   00001DH   BYTE   INSEG    CODE           ?PR?SETPWMCOMPARE1?_?PERIPHERALS
FF45DCH   FF45F8H   00001DH   BYTE   INSEG    CODE           ?PR?SETPWMCOMPARE2?_?PERIPHERALS
FF45F9H   FF4615H   00001DH   BYTE   INSEG    CODE           ?PR?SETPWMCOMPARE3?_?PERIPHERALS
FF4616H   FF4632H   00001DH   BYTE   INSEG    CODE           ?PR?INITAFTERJUMP?_?PERIPHERALS
FF4633H   FF464FH   00001DH   BYTE   INSEG    CODE           ?PR?TMR4_INIT?_?PERIPHERALS
FF4650H   FF466BH   00001CH   BYTE   INSEG    CODE           ?PR?PAUSE?_?SOUNDS
FF466CH   FF4685H   00001AH   BYTE   INSEG    CODE           ?PR?TMR3_INIT?_?PERIPHERALS
FF4686H   FF469CH   000017H   BYTE   INSEG    CODE           ?PR?STEP_AB?_?PHASEOUTS
FF469DH   FF46B3H   000017H   BYTE   INSEG    CODE           ?PR?STEP_CA?_?PHASEOUTS
FF46B4H   FF46CAH   000017H   BYTE   INSEG    CODE           ?PR?STEP_BA?_?PHASEOUTS
FF46CBH   FF46E1H   000017H   BYTE   INSEG    CODE           ?PR?STEP_AC?_?PHASEOUTS
FF46E2H   FF46F7H   000016H   BYTE   INSEG    CODE           ?PR?STEP_CB?_?PHASEOUTS
FF46F8H   FF470DH   000016H   BYTE   INSEG    CODE           ?PR?STEP_BC?_?PHASEOUTS
FF470EH   FF4722H   000015H   BYTE   INSEG    CODE           ?PR?PHASEAFLOAT?_?PHASEOUTS
FF4723H   FF4737H   000015H   BYTE   INSEG    CODE           ?PR?PHASEALOW?_?PHASEOUTS
FF4738H   FF474CH   000015H   BYTE   INSEG    CODE           ?PR?PHASEBFLOAT?_?PHASEOUTS
FF474DH   FF4761H   000015H   BYTE   INSEG    CODE           ?PR?PHASEBLOW?_?PHASEOUTS
FF4762H   FF4776H   000015H   BYTE   INSEG    CODE           ?PR?PHASECFLOAT?_?PHASEOUTS
FF4777H   FF478BH   000015H   BYTE   INSEG    CODE           ?PR?PHASECLOW?_?PHASEOUTS
FF478CH   FF479FH   000014H   BYTE   INSEG    CODE           ?PR?PROPORTIONALBRAKE?_?PHASEOUTS
FF47A0H   FF47B1H   000012H   BYTE   INSEG    CODE           ?PR?SETVOLUME?_?SOUNDS
FF47B2H   FF47C1H   000010H   BYTE   INSEG    CODE           ?PR?READ_FLASH_BIN?_?EEPROM
FF47C2H   FF47D1H   000010H   BYTE   INSEG    CODE           ?PR?IWDG_INIT?_?PERIPHERALS
FF47D2H   FF47E0H   00000FH   BYTE   INSEG    CODE           ?PR?GETABSDIF?_?FUNCTIONS
FF47E1H   FF47EEH   00000EH   BYTE   INSEG    CODE           ?PR?GENERATEPWMTIMEREVENT?_?PERIPHERALS
FF47EFH   FF47FAH   00000CH   BYTE   UNIT     CODE           ?PR?FPCMP?AI8051U_32_TFPU
FF47FBH   FF4804H   00000AH   BYTE   INSEG    CODE           ?PR?SETCAPTURECOMPARE?_?SOUNDS
FF4805H   FF480EH   00000AH   BYTE   INSEG    CODE           ?PR?ALLOFF?_?PHASEOUTS
L251 LINKER/LOCATER V4.66.93.0                                                        12/22/2024  10:45:14  PAGE 4


FF480FH   FF4818H   00000AH   BYTE   INSEG    CODE           ?PR?FULLBRAKE?_?PHASEOUTS
FF4819H   FF4822H   00000AH   BYTE   INSEG    CODE           ?PR?ALLPWM?_?PHASEOUTS
FF4823H   FF482CH   00000AH   BYTE   INSEG    CODE           ?PR?TWOCHANNELFORWARD?_?PHASEOUTS
FF482DH   FF4836H   00000AH   BYTE   INSEG    CODE           ?PR?TWOCHANNELREVERSE?_?PHASEOUTS
FF4837H   FF483DH   000007H   BYTE   UNIT     CODE           ?PR?FABS?AI8051U_32_TFPU
FF483EH   FF4843H   000006H   BYTE   UNIT     CODE           ?PR?LIMUL?AI8051U_32_MDU32
FF4844H   FF4849H   000006H   BYTE   UNIT     CODE           ?PR?ULIDIV?AI8051U_32_MDU32
FF484AH   FF484FH   000006H   BYTE   UNIT     CODE           ?PR?FXAM?AI8051U_32_TFPU
FF4850H   FF4855H   000006H   BYTE   UNIT     CODE           ?PR?CASTF?AI8051U_32_TFPU
FF4856H   FF485BH   000006H   BYTE   UNIT     CODE           ?PR?FCASTC?AI8051U_32_TFPU
FF485CH   FF4861H   000006H   BYTE   UNIT     CODE           ?PR?FCASTI?AI8051U_32_TFPU
FF4862H   FF4867H   000006H   BYTE   UNIT     CODE           ?PR?FPSRR?AI8051U_32_TFPU
FF4868H   FF486DH   000006H   BYTE   UNIT     CODE           ?PR?FPSRW?AI8051U_32_TFPU
FF486EH   FF4873H   000006H   BYTE   UNIT     CODE           ?PR?FPCRR?AI8051U_32_TFPU
FF4874H   FF4879H   000006H   BYTE   UNIT     CODE           ?PR?FPCRW?AI8051U_32_TFPU
FF487AH   FF487DH   000004H   BYTE   UNIT     CODE           ?PR?SLDIV?AI8051U_32_MDU32
FF487EH   FF4881H   000004H   BYTE   UNIT     CODE           ?PR?FPADD?AI8051U_32_TFPU
FF4882H   FF4885H   000004H   BYTE   UNIT     CODE           ?PR?FPSUB?AI8051U_32_TFPU
FF4886H   FF4889H   000004H   BYTE   UNIT     CODE           ?PR?FPMUL?AI8051U_32_TFPU
FF488AH   FF488DH   000004H   BYTE   UNIT     CODE           ?PR?FPDIV?AI8051U_32_TFPU
FF488EH   FF4891H   000004H   BYTE   UNIT     CODE           ?PR?SQRT?AI8051U_32_TFPU
FF4892H   FF4895H   000004H   BYTE   UNIT     CODE           ?PR?SIN?AI8051U_32_TFPU
FF4896H   FF4899H   000004H   BYTE   UNIT     CODE           ?PR?COS?AI8051U_32_TFPU
FF489AH   FF489DH   000004H   BYTE   UNIT     CODE           ?PR?TAN?AI8051U_32_TFPU
FF489EH   FF48A1H   000004H   BYTE   UNIT     CODE           ?PR?ATAN?AI8051U_32_TFPU
FF48A2H   FF48A5H   000004H   BYTE   UNIT     CODE           ?PR?FCASTL?AI8051U_32_TFPU
FF48A6H   FF48A9H   000004H   BYTE   UNIT     CODE           ?PR?FCLEX?AI8051U_32_TFPU
FF48AAH   FF48ADH   000004H   BYTE   UNIT     CODE           ?PR?FINIT?AI8051U_32_TFPU
FF48AEH   FF509BH   0007EEH   BYTE   UNIT     HCONST         ?C_INITHDATA
FF509CH   FF52DDH   000242H   BYTE   UNIT     HCONST         ?C_INITEDATA
FF52DEH   FF52EAH   00000DH   BYTE   UNIT     HCONST         ?HC?MAIN



OVERLAY MAP OF MODULE:   .\Objects\AM32_AI8051U (functions)


FUNCTION/MODULE                           BIT_GROUP   DATA_GROUP 
--> CALLED FUNCTION/MODULE               START  STOP  START  STOP
=================================================================
CMP_ISR?_/stc8051u_it                    ----- -----  ----- -----
  +--> interruptRoutine?_/commutate

interruptRoutine?_/commutate             ----- -----  ----- -----

*** NEW ROOT ***************************

TMR4_ISR?_/stc8051u_it                   ----- -----  ----- -----
  +--> TwentyKhzRoutine?_/main

TwentyKhzRoutine?_/main                  ----- -----  ----- -----
  +--> playInputTune?_/sounds
  +--> delayMillis?_/functions
  +--> getBemfState?_/commutate
  +--> zcfoundroutine?_/commutate
  +--> doPidCalculations?_/functions
  +--> FPDIV/AI8051U_32_TFPU
  +--> CASTF/AI8051U_32_TFPU
  +--> FPADD/AI8051U_32_TFPU
  +--> FPCMP/AI8051U_32_TFPU
  +--> FCASTI/AI8051U_32_TFPU
  +--> LIMUL/AI8051U_32_MDU32
  +--> SLDIV/AI8051U_32_MDU32
  +--> SET_AUTO_RELOAD_PWM?_/peripherals
  +--> SET_DUTY_CYCLE_ALL?_/peripherals
L251 LINKER/LOCATER V4.66.93.0                                                        12/22/2024  10:45:14  PAGE 5



playInputTune?_/sounds                   ----- -----  ----- -----
  +--> SET_AUTO_RELOAD_PWM?_/peripherals
  +--> SET_PRESCALER_PWM?_/peripherals
  +--> setCaptureCompare?_/sounds
  +--> delayMillis?_/functions
  +--> allOff?_/phaseouts

SET_AUTO_RELOAD_PWM?_/peripherals        ----- -----  ----- -----

SET_PRESCALER_PWM?_/peripherals          ----- -----  ----- -----

setCaptureCompare?_/sounds               ----- -----  ----- -----
  +--> SET_DUTY_CYCLE_ALL?_/peripherals

SET_DUTY_CYCLE_ALL?_/peripherals         ----- -----  ----- -----

delayMillis?_/functions                  ----- -----  ----- -----
  +--> LIMUL/AI8051U_32_MDU32

LIMUL/AI8051U_32_MDU32                   ----- -----  ----- -----

allOff?_/phaseouts                       ----- -----  ----- -----
  +--> phaseAFLOAT?_/phaseouts
  +--> phaseBFLOAT?_/phaseouts
  +--> phaseCFLOAT?_/phaseouts

phaseAFLOAT?_/phaseouts                  ----- -----  ----- -----

phaseBFLOAT?_/phaseouts                  ----- -----  ----- -----

phaseCFLOAT?_/phaseouts                  ----- -----  ----- -----

getBemfState?_/commutate                 ----- -----  ----- -----

zcfoundroutine?_/commutate               ----- -----  ----- -----
  +--> commutate?_/commutate

commutate?_/commutate                    ----- -----  ----- -----

doPidCalculations?_/functions            ----- -----  ----- -----
  +--> LMUL/AI8051U_32_MDU32
  +--> FCASTL/AI8051U_32_TFPU

LMUL/AI8051U_32_MDU32                    ----- -----  ----- -----

FCASTL/AI8051U_32_TFPU                   ----- -----  ----- -----

FPDIV/AI8051U_32_TFPU                    ----- -----  ----- -----

CASTF/AI8051U_32_TFPU                    ----- -----  ----- -----

FPADD/AI8051U_32_TFPU                    ----- -----  ----- -----

FPCMP/AI8051U_32_TFPU                    ----- -----  ----- -----

FCASTI/AI8051U_32_TFPU                   ----- -----  ----- -----

SLDIV/AI8051U_32_MDU32                   ----- -----  ----- -----

*** NEW ROOT ***************************

TMR0_ISR?_/stc8051u_it                   ----- -----  ----- -----
  +--> PeriodElapsedCallback?_/commutate

L251 LINKER/LOCATER V4.66.93.0                                                        12/22/2024  10:45:14  PAGE 6


PeriodElapsedCallback?_/commutate        ----- -----  ----- -----
  +--> commutate?_/commutate

*** NEW ROOT ***************************

PWMB_ISR?_/stc8051u_it                   ----- -----  ----- -----
  +--> transfercomplete?_/input

transfercomplete?_/input                 ----- -----  ----- -----
  +--> detectInput?_/input
  +--> receiveDshotDma?_/input
  +--> computeServoInput?_/servo
  +--> getAbsDif?_/functions
  +--> playBeaconTune3?_/sounds

detectInput?_/input                      ----- -----  ----- -----
  +--> checkServo?_/servo

checkServo?_/servo                       ----- -----  ----- -----

receiveDshotDma?_/input                  ----- -----  ----- -----

computeServoInput?_/servo                ----- -----  ----- -----
  +--> getAbsDif?_/functions
  +--> LIMUL/AI8051U_32_MDU32
  +--> playDefaultTone?_/sounds
  +--> saveEEpromSettings?_/eeprom
  +--> playChangedTone?_/sounds
  +--> map?_/functions

getAbsDif?_/functions                    ----- -----  ----- -----

playDefaultTone?_/sounds                 ----- -----  ----- -----
  +--> SET_AUTO_RELOAD_PWM?_/peripherals
  +--> SET_PRESCALER_PWM?_/peripherals
  +--> setCaptureCompare?_/sounds
  +--> delayMillis?_/functions
  +--> allOff?_/phaseouts

saveEEpromSettings?_/eeprom              ----- -----  ----- -----
  +--> save_flash_nolib?_/eeprom

save_flash_nolib?_/eeprom                ----- -----  ----- -----
  +--> memcmp?_/memcmp

memcmp?_/memcmp                          ----- -----  ----- -----

playChangedTone?_/sounds                 ----- -----  ----- -----
  +--> SET_AUTO_RELOAD_PWM?_/peripherals
  +--> SET_PRESCALER_PWM?_/peripherals
  +--> setCaptureCompare?_/sounds
  +--> delayMillis?_/functions
  +--> allOff?_/phaseouts

map?_/functions                          ----- -----  ----- -----
  +--> LMUL/AI8051U_32_MDU32
  +--> SLDIV/AI8051U_32_MDU32

playBeaconTune3?_/sounds                 ----- -----  ----- -----
  +--> SET_AUTO_RELOAD_PWM?_/peripherals
  +--> setCaptureCompare?_/sounds
  +--> SET_PRESCALER_PWM?_/peripherals
  +--> delayMillis?_/functions
  +--> allOff?_/phaseouts

L251 LINKER/LOCATER V4.66.93.0                                                        12/22/2024  10:45:14  PAGE 7


*** NEW ROOT ***************************

?C_C51STARTUP                            ----- -----  ----- -----

*** NEW ROOT ***************************

?C_C51STARTUP?3                          ----- -----  ----- -----
  +--> main/main

main/main                                ----- -----  ----- -----
  +--> initAfterJump?_/peripherals
  +--> checkDeviceInfo?_/main
  +--> initCorePeripherals?_/peripherals
  +--> loadEEpromSettings?_/eeprom
  +--> strncpy?_/STRNCPY
  +--> saveEEpromSettings?_/eeprom
  +--> playStartupTune?_/sounds
  +--> IWDG_Init?_/peripherals
  +--> receiveDshotDma?_/input
  +--> setInput?_/input
  +--> map?_/functions
  +--> allOff?_/phaseouts
  +--> SET_DUTY_CYCLE_ALL?_/peripherals
  +--> resetInputCaptureTimer?_/input
  +--> ULIDIV/AI8051U_32_MDU32
  +--> getAbsDif?_/functions
  +--> SLDIV/AI8051U_32_MDU32
  +--> ULDIV/AI8051U_32_MDU32
  +--> zcfoundroutine?_/commutate
  +--> allpwm?_/phaseouts
  +--> advanceincrement?_/commutate
  +--> delayMicros?_/functions
  +--> commutate?_/commutate
  +--> generatePwmTimerEvent?_/peripherals
  +--> LIMUL/AI8051U_32_MDU32
  +--> proportionalBrake?_/phaseouts

initAfterJump?_/peripherals              ----- -----  ----- -----

checkDeviceInfo?_/main                   ----- -----  ----- -----

initCorePeripherals?_/peripherals        ----- -----  ----- -----
  +--> configSystemClock?_/peripherals
  +--> GPIO_Init?_/peripherals
  +--> CMP_Init?_/peripherals
  +--> PWMA_Init?_/peripherals
  +--> TMR0_Init?_/peripherals
  +--> TMR1_Init?_/peripherals
  +--> TMR3_Init?_/peripherals
  +--> TMR4_Init?_/peripherals
  +--> TMR11_Init?_/peripherals
  +--> UN_PWMB_Init?_/peripherals

configSystemClock?_/peripherals          ----- -----  ----- -----

GPIO_Init?_/peripherals                  ----- -----  ----- -----

CMP_Init?_/peripherals                   ----- -----  ----- -----

PWMA_Init?_/peripherals                  ----- -----  ----- -----

TMR0_Init?_/peripherals                  ----- -----  ----- -----

TMR1_Init?_/peripherals                  ----- -----  ----- -----

L251 LINKER/LOCATER V4.66.93.0                                                        12/22/2024  10:45:14  PAGE 8


TMR3_Init?_/peripherals                  ----- -----  ----- -----

TMR4_Init?_/peripherals                  ----- -----  ----- -----

TMR11_Init?_/peripherals                 ----- -----  ----- -----

UN_PWMB_Init?_/peripherals               ----- -----  ----- -----

loadEEpromSettings?_/eeprom              ----- -----  ----- -----
  +--> read_flash_bin?_/eeprom
  +--> map?_/functions
  +--> SET_AUTO_RELOAD_PWM?_/peripherals
  +--> SLDIV/AI8051U_32_MDU32
  +--> setVolume?_/sounds

read_flash_bin?_/eeprom                  ----- -----  ----- -----
  +--> memcpy?_/memcpy

memcpy?_/memcpy                          ----- -----  ----- -----

setVolume?_/sounds                       ----- -----  ----- -----

strncpy?_/STRNCPY                        ----- -----  ----- -----

playStartupTune?_/sounds                 ----- -----  ----- -----
  +--> playBlueJayTune?_/sounds
  +--> SET_AUTO_RELOAD_PWM?_/peripherals
  +--> setCaptureCompare?_/sounds
  +--> SET_PRESCALER_PWM?_/peripherals
  +--> delayMillis?_/functions
  +--> allOff?_/phaseouts

playBlueJayTune?_/sounds                 ----- -----  ----- -----
  +--> SET_DUTY_CYCLE_ALL?_/peripherals
  +--> delayMillis?_/functions
  +--> getBlueJayNoteFrequency?_/sounds
  +--> LIMUL/AI8051U_32_MDU32
  +--> SLDIV/AI8051U_32_MDU32
  +--> LMUL/AI8051U_32_MDU32
  +--> playBJNote?_/sounds
  +--> allOff?_/phaseouts
  +--> SET_PRESCALER_PWM?_/peripherals
  +--> SET_AUTO_RELOAD_PWM?_/peripherals

getBlueJayNoteFrequency?_/sounds         ----- -----  ----- -----
  +--> LIMUL/AI8051U_32_MDU32
  +--> SLDIV/AI8051U_32_MDU32

playBJNote?_/sounds                      ----- -----  ----- -----
  +--> SET_PRESCALER_PWM?_/peripherals
  +--> SLDIV/AI8051U_32_MDU32
  +--> SET_AUTO_RELOAD_PWM?_/peripherals
  +--> SET_DUTY_CYCLE_ALL?_/peripherals
  +--> delayMillis?_/functions

IWDG_Init?_/peripherals                  ----- -----  ----- -----

setInput?_/input                         ----- -----  ----- -----
  +--> map?_/functions
  +--> allOff?_/phaseouts
  +--> LIMUL/AI8051U_32_MDU32
  +--> SLDIV/AI8051U_32_MDU32
  +--> startMotor?_/commutate
  +--> playDefaultTone?_/sounds
  +--> playChangedTone?_/sounds
L251 LINKER/LOCATER V4.66.93.0                                                        12/22/2024  10:45:14  PAGE 9


  +--> playBeaconTune3?_/sounds
  +--> playInputTune2?_/sounds
  +--> fullBrake?_/phaseouts
  +--> getAbsDif?_/functions
  +--> proportionalBrake?_/phaseouts
  +--> FPCMP/AI8051U_32_TFPU
  +--> CASTF/AI8051U_32_TFPU

startMotor?_/commutate                   ----- -----  ----- -----
  +--> commutate?_/commutate

playInputTune2?_/sounds                  ----- -----  ----- -----
  +--> SET_AUTO_RELOAD_PWM?_/peripherals
  +--> SET_PRESCALER_PWM?_/peripherals
  +--> setCaptureCompare?_/sounds
  +--> delayMillis?_/functions
  +--> allOff?_/phaseouts

fullBrake?_/phaseouts                    ----- -----  ----- -----
  +--> phaseALOW?_/phaseouts
  +--> phaseBLOW?_/phaseouts
  +--> phaseCLOW?_/phaseouts

phaseALOW?_/phaseouts                    ----- -----  ----- -----

phaseBLOW?_/phaseouts                    ----- -----  ----- -----

phaseCLOW?_/phaseouts                    ----- -----  ----- -----

proportionalBrake?_/phaseouts            ----- -----  ----- -----

resetInputCaptureTimer?_/input           ----- -----  ----- -----

ULIDIV/AI8051U_32_MDU32                  ----- -----  ----- -----

ULDIV/AI8051U_32_MDU32                   ----- -----  ----- -----

allpwm?_/phaseouts                       ----- -----  ----- -----
  +--> phaseAPWM?_/phaseouts
  +--> phaseBPWM?_/phaseouts
  +--> phaseCPWM?_/phaseouts

phaseAPWM?_/phaseouts                    ----- -----  ----- -----

phaseBPWM?_/phaseouts                    ----- -----  ----- -----

phaseCPWM?_/phaseouts                    ----- -----  ----- -----

advanceincrement?_/commutate             ----- -----  ----- -----
  +--> LIMUL/AI8051U_32_MDU32
  +--> SLDIV/AI8051U_32_MDU32
  +--> LMUL/AI8051U_32_MDU32
  +--> setPWMCompare1?_/peripherals
  +--> setPWMCompare2?_/peripherals
  +--> setPWMCompare3?_/peripherals

setPWMCompare1?_/peripherals             ----- -----  ----- -----

setPWMCompare2?_/peripherals             ----- -----  ----- -----

setPWMCompare3?_/peripherals             ----- -----  ----- -----

delayMicros?_/functions                  ----- -----  ----- -----

generatePwmTimerEvent?_/peripherals      ----- -----  ----- -----
L251 LINKER/LOCATER V4.66.93.0                                                        12/22/2024  10:45:14  PAGE 10



*** NEW ROOT ***************************

?C_C51STARTUP?2                          ----- -----  ----- -----



PUBLIC SYMBOLS OF MODULE:  .\Objects\AM32_AI8051U (functions)


      VALUE       CLASS    TYPE      PUBLIC SYMBOL NAME
      =================================================
      00FF4850H   CODE     ---       ?C?CASTF
      000000FFH   NUMBER   ---       ?C?CODESEG
      00FF4856H   CODE     ---       ?C?FCASTC
      00FF485CH   CODE     ---       ?C?FCASTI
      00FF48A2H   CODE     ---       ?C?FCASTL
      00FF487EH   CODE     ---       ?C?FPADD
      00FF47EFH   CODE     ---       ?C?FPCMP3
      00FF488AH   CODE     ---       ?C?FPDIV
      00FF4886H   CODE     ---       ?C?FPMUL
      00FF1004H   CODE     ---       ?C?FPNEG
      00FF4882H   CODE     ---       ?C?FPSUB
      00FF3E6BH   CODE     ---       ?C?INITEDATA
      00FF52DCH   HCONST   WORD      ?C?INITEDATA_END
      00FF3E94H   CODE     ---       ?C?INITHDATA
      00FF509AH   HCONST   WORD      ?C?INITHDATA_END
      00FF483EH   CODE     ---       ?C?LIMUL
      00FF109EH   CODE     ---       ?C?LMUL
      00FF4366H   CODE     ---       ?C?SIDIV
      00FF487AH   CODE     ---       ?C?SLDIV
      00FF0000H   CODE     ---       ?C?STARTUP
      00FF1146H   CODE     ---       ?C?ULDIV
      00FF4844H   CODE     ---       ?C?ULIDIV
      00000001H   NUMBER   ---       ?C?XDATASEG
      00FF0000H   CODE     ---       ?C_STARTUP
*SFR* 000000E0H   DATA     BYTE      ACC
      000000C0H   EDATA    WORD      actual_current
*SFR* 000000BCH   DATA     BYTE      ADC_CONTR
*SFR* 000000DEH   DATA     BYTE      ADCCFG
      000000F2H   EDATA    LONG      adjusted_duty_cycle
      000000E8H   EDATA    INT       adjusted_input
      00000080H   EDATA    WORD      advance
      0000002AH   EDATA    BYTE      ADVANCE_LEVEL
      00FF2CF8H   CODE     ---       advanceincrement?_
      00FF4805H   CODE     ---       allOff?_
      00FF4819H   CODE     ---       allpwm?_
      000000AFH   EDATA    BYTE      armed
      000000D7H   EDATA    WORD      armed_timeout_counter
      00FF489EH   CODE     ---       ATAN?_
      0000005FH   EDATA    BYTE      AUTO_ADVANCE
      0000007FH   EDATA    BYTE      auto_advance_level
*SFR* 000000EFH   DATA     BYTE      AUXINTIF
*SFR* 0000008EH   DATA     BYTE      AUXR
*SFR* 00000097H   DATA     BYTE      AUXR2
      00000084H   EDATA    WORD      average_interval
      000000E2H   EDATA    WORD      average_signal_pulse
      00000077H   EDATA    BYTE      bad_count
      00000078H   EDATA    BYTE      bad_count_threshold
      000000BEH   EDATA    WORD      battery_voltage
      000107D9H   XDATA    BYTE      beep_volume
      00000075H   EDATA    BYTE      bemf_timeout
      00000076H   EDATA    BYTE      bemf_timeout_happened
      00000072H   EDATA    BYTE      bemfcounter
      00000024H   EDATA    BYTE      BI_DIRECTION
L251 LINKER/LOCATER V4.66.93.0                                                        12/22/2024  10:45:14  PAGE 11


      00000044H   EDATA    BYTE      BRAKE_ON_STOP
      000000FFH   EDATA    BYTE      brushed_direction_set
      000000DFH   EDATA    BYTE      buffersize
      00000111H   EDATA    BYTE      calibration_required
      000000BDH   EDATA    BYTE      cell_counter
      0000009BH   EDATA    BYTE      changeover_step
      00FF4453H   CODE     ---       checkServo?_
*SFR* 000000EAH   DATA     BYTE      CKCON
*SFR* 000000C1H.4 DATA     BIT       CLR_WDT
*SFR* 000000C7H.4 DATA     BIT       CMD_FAIL
      00FF3477H   CODE     ---       CMP_Init?_
      00FF10A6H   CODE     ---       CMP_ISR?_
*SFR* 000000E6H   DATA     BYTE      CMPCR1
*SFR* 000000E7H   DATA     BYTE      CMPCR2
*SFR* 000000E6H.7 DATA     BIT       CMPEN
*SFR* 000000BAH.3 DATA     BIT       CMPO_S
*SFR* 000000E6H.1 DATA     BIT       CMPOE
*SFR* 000000E6H.0 DATA     BIT       CMPRES
      00FF3855H   CODE     ---       commutate?_
      00000088H   EDATA    WORD      commutation_interval
      0000008AH   EDATA    ---       commutation_intervals
      00000027H   EDATA    BYTE      COMP_PWM
      00FF29F3H   CODE     ---       computeServoInput?_
      00000105H   EDATA    ---       comStep
      00FF3F93H   CODE     ---       configSystemClock?_
      00FF4896H   CODE     ---       COS?_
      0000005BH   EDATA    WORD      current_limit
      000000C2H   EDATA    WORD      current_limit_adjust
      00010788H   XDATA    ---       currentPid
      00000055H   EDATA    BYTE      dead_time_override
      000000C4H   EDATA    BYTE      degrees_celsius
      00FF43F7H   CODE     ---       delayMicros?_
      00FF3C74H   CODE     ---       delayMillis?_
      0000006DH   EDATA    BYTE      desync_check
      0000006EH   EDATA    BYTE      desync_happened
      00FF3676H   CODE     ---       detectInput?_
      00000025H   EDATA    BYTE      DIR_REVERSED
*SFR* 000000E7H.6 DATA     BIT       DISFLT
      000105ACH   XDATA    ---       dma_buffer
*SFR* 000000EDH   DATA     BYTE      DMAIR
      0000009CH   EDATA    BYTE      do_once_sinemode
      00FF2E9FH   CODE     ---       doPidCalculations?_
*SFR* 00000083H   DATA     BYTE      DPH
*SFR* 00000082H   DATA     BYTE      DPL
      00000054H   EDATA    BYTE      DRAG_BRAKE_STRENGTH
      000000A5H   EDATA    BYTE      drive_by_rpm
      000000DDH   EDATA    BYTE      dshot
      000000EEH   EDATA    LONG      duty_cycle
      000000B5H   EDATA    DWORD     e_com_time
      000000B1H   EDATA    WORD      e_rpm
*SFR* 000000A8H.7 DATA     BIT       EA
      00000020H   EDATA    DWORD     eeprom_address
      00000067H   EDATA    BYTE      eeprom_layout_version
      000106ACH   XDATA    ---       eepromBuffer
*SFR* 000000C1H.5 DATA     BIT       EN_WDT
      00FF10D9H   CODE     ---       enableHalfTransferInt?_
      00000113H   EDATA    BYTE      enter_calibration_counter
*SFR* 000000A8H.1 DATA     BIT       ET0
      00FF4837H   CODE     ---       FABS?_
      000000D9H   EDATA    BYTE      fast_accel
      00FF48A6H   CODE     ---       FCLEX
      0000006CH   EDATA    BYTE      filter_level
      00FF48AAH   CODE     ---       FINIT
      0000006AH   EDATA    BYTE      forward
      00FF486EH   CODE     ---       FPCRR
L251 LINKER/LOCATER V4.66.93.0                                                        12/22/2024  10:45:14  PAGE 12


      00FF4874H   CODE     ---       FPCRW
      00FF4862H   CODE     ---       FPSRR
      00FF4868H   CODE     ---       FPSRW
      00FF480FH   CODE     ---       fullBrake?_
      00FF484AH   CODE     ---       FXAM
      00FF47E1H   CODE     ---       generatePwmTimerEvent?_
      00FF47D2H   CODE     ---       getAbsDif?_
      00FF3F2EH   CODE     ---       getBemfState?_
      00FF4585H   CODE     ---       getBlueJayNoteFrequency?_
      00FF312BH   CODE     ---       GPIO_Init?_
      00000114H   EDATA    BYTE      high_calibration_counter
      00000112H   EDATA    BYTE      high_calibration_set
      00000063H   EDATA    WORD      high_rpm_level
*SFR* 000000F6H   DATA     BYTE      IAP_ADDRE
*SFR* 000000C3H   DATA     BYTE      IAP_ADDRH
*SFR* 000000C4H   DATA     BYTE      IAP_ADDRL
*SFR* 000000C5H   DATA     BYTE      IAP_CMD
*SFR* 000000C7H   DATA     BYTE      IAP_CONTR
*SFR* 000000C2H   DATA     BYTE      IAP_DATA
*SFR* 000000F5H   DATA     BYTE      IAP_TPS
*SFR* 000000C6H   DATA     BYTE      IAP_TRIG
*SFR* 000000C7H.7 DATA     BIT       IAPEN
      000000DEH   EDATA    BYTE      ic_timer_prescaler
*SFR* 000000C1H.3 DATA     BIT       IDL_WDT
*SFR* 000000A8H   DATA     BYTE      IE
*SFR* 000000AFH   DATA     BYTE      IE2
      00FF4616H   CODE     ---       initAfterJump?_
      00FF4566H   CODE     ---       initCorePeripherals?_
      000000EAH   EDATA    INT       input
      000000ECH   EDATA    INT       input_override
      000000E4H   EDATA    BYTE      input_ready
      000000E5H   EDATA    BYTE      inputSet
*SFR* 0000008FH   DATA     BYTE      INTCLKO
      0000011CH   EDATA    BYTE      interrupt_time
      00FF3769H   CODE     ---       interruptRoutine?_
*SFR* 000000B8H   DATA     BYTE      IP
*SFR* 000000B5H   DATA     BYTE      IP2
*SFR* 000000B6H   DATA     BYTE      IP2H
*SFR* 000000DFH   DATA     BYTE      IP3
*SFR* 000000EEH   DATA     BYTE      IP3H
*SFR* 000000B7H   DATA     BYTE      IPH
*SFR* 0000009DH   DATA     BYTE      IRCBAND
      00FF47C2H   CODE     ---       IWDG_Init?_
      000000B3H   EDATA    WORD      k_erpm
      00000086H   EDATA    WORD      last_average_interval
      00000096H   EDATA    WORD      last_commutation_interval
      000000F6H   EDATA    LONG      last_duty_cycle
      00000116H   EDATA    INT       last_high_threshold
      00000103H   EDATA    INT       last_input
      000000CFH   EDATA    WORD      ledcounter
      00FF20BDH   CODE     ---       loadEEpromSettings?_
      00000115H   EDATA    BYTE      low_calibration_counter
      0000004FH   EDATA    WORD      low_cell_volt_cutoff
      00000061H   EDATA    WORD      low_rpm_level
      00000060H   EDATA    BYTE      low_rpm_throttle_limit
      0000004EH   EDATA    BYTE      LOW_VOLTAGE_CUTOFF
      00FF1A03H   CODE     ---       main
      00FF4197H   CODE     ---       map?_
      000000FAH   EDATA    BYTE      max_duty_cycle_change
      0000011AH   EDATA    INT       max_servo_deviation
      00000033H   EDATA    LONG      max_startup_duty_cycle
      0000003BH   EDATA    LONG      maximum_duty_cycle
      000000ABH   EDATA    DWORD     MAXIMUM_RPM_SPEED_CONTROL
      000000DAH   EDATA    BYTE      maximum_throttle_change_ramp
      00FF43C8H   CODE     ---       memcmp?_
L251 LINKER/LOCATER V4.66.93.0                                                        12/22/2024  10:45:14  PAGE 13


      00FF4520H   CODE     ---       memcpy?_
      00000074H   EDATA    BYTE      min_bemf_counts_down
      00000073H   EDATA    BYTE      min_bemf_counts_up
      0000002FH   EDATA    LONG      min_startup_duty_cycle
      00000037H   EDATA    LONG      minimum_duty_cycle
      000000A7H   EDATA    DWORD     MINIMUM_RPM_SPEED_CONTROL
      00000041H   EDATA    WORD      MOTOR_KV
      00000043H   EDATA    BYTE      MOTOR_POLES
      000000E6H   EDATA    INT       newinput
*SFR* 000000E6H.4 DATA     BIT       NIE
      00000070H   EDATA    BYTE      old_routine
      000000D1H   EDATA    WORD      onekhzcounter
*SFR* 00000080H   DATA     BYTE      P0
*SFR* 00000080H.0 DATA     BIT       P00
*SFR* 00000080H.1 DATA     BIT       P01
*SFR* 00000080H.2 DATA     BIT       P02
*SFR* 00000080H.3 DATA     BIT       P03
*SFR* 00000080H.4 DATA     BIT       P04
*SFR* 00000080H.5 DATA     BIT       P05
*SFR* 00000094H   DATA     BYTE      P0M0
*SFR* 00000093H   DATA     BYTE      P0M1
*SFR* 00000090H   DATA     BYTE      P1
*SFR* 000000A0H   DATA     BYTE      P2
*SFR* 000000A0H.1 DATA     BIT       P21
*SFR* 00000096H   DATA     BYTE      P2M0
*SFR* 00000095H   DATA     BYTE      P2M1
*SFR* 000000B0H   DATA     BYTE      P3
*SFR* 000000C0H   DATA     BYTE      P4
*SFR* 000000B4H   DATA     BYTE      P4M0
*SFR* 000000B3H   DATA     BYTE      P4M1
*SFR* 000000C8H   DATA     BYTE      P5
*SFR* 000000CAH   DATA     BYTE      P5M0
*SFR* 000000C9H   DATA     BYTE      P5M1
*SFR* 000000E8H   DATA     BYTE      P6
*SFR* 000000F8H   DATA     BYTE      P7
*SFR* 000000A2H   DATA     BYTE      P_SW1
*SFR* 000000BAH   DATA     BYTE      P_SW2
*SFR* 000000BBH   DATA     BYTE      P_SW3
*SFR* 000000BFH   DATA     BYTE      P_SW4
      00FF4650H   CODE     ---       pause?_
*SFR* 00000087H   DATA     BYTE      PCON
      00FF3BE6H   CODE     ---       PeriodElapsedCallback?_
      0000009DH   EDATA    INT       phase_A_position
      0000009FH   EDATA    INT       phase_B_position
      000000A1H   EDATA    INT       phase_C_position
      00FF470EH   CODE     ---       phaseAFLOAT?_
      00FF4723H   CODE     ---       phaseALOW?_
      00FF42B5H   CODE     ---       phaseAPWM?_
      00FF4738H   CODE     ---       phaseBFLOAT?_
      00FF474DH   CODE     ---       phaseBLOW?_
      00FF42F0H   CODE     ---       phaseBPWM?_
      00FF4762H   CODE     ---       phaseCFLOAT?_
      00FF4777H   CODE     ---       phaseCLOW?_
      00FF432BH   CODE     ---       phaseCPWM?_
*SFR* 000000E6H.5 DATA     BIT       PIE
      00000068H   EDATA    BYTE      play_tone_flag
      00FF3DE4H   CODE     ---       playBeaconTune3?_
      00FF40A5H   CODE     ---       playBJNote?_
      00FF3580H   CODE     ---       playBlueJayTune?_
      00FF3D70H   CODE     ---       playBrushedStartupTune?_
      00FF4270H   CODE     ---       playChangedTone?_
      00FF422BH   CODE     ---       playDefaultTone?_
      00FF100EH   CODE     ---       playDuskingTune?_
      00FF3FF4H   CODE     ---       playInputTune2?_
      00FF404EH   CODE     ---       playInputTune?_
L251 LINKER/LOCATER V4.66.93.0                                                        12/22/2024  10:45:14  PAGE 14


      00FF3CFBH   CODE     ---       playStartupTune?_
*SFR* 000000B5H.3 DATA     BIT       PPWMB
*SFR* 000000B6H.3 DATA     BIT       PPWMBH
      0000006FH   EDATA    BYTE      prop_brake_active
      000000FBH   EDATA    LONG      prop_brake_duty_cycle
      00FF478CH   CODE     ---       proportionalBrake?_
*SFR* 000000D0H   DATA     BYTE      PSW
*SFR* 000000D1H   DATA     BYTE      PSW1
*SFR* 000000B8H.1 DATA     BIT       PT0
*SFR* 000000B7H.1 DATA     BIT       PT0H
      0000002DH   EDATA    WORD      PWM_ARR
      0000002BH   EDATA    WORD      PWM_MAX_ARR
      00FF2FF5H   CODE     ---       PWMA_Init?_
      00FF3A99H   CODE     ---       PWMB_ISR?_
      00010000H   XDATA    ---       pwmSin
      00000051H   EDATA    BYTE      RC_CAR_REVERSE
      00FF47B2H   CODE     ---       read_flash_bin?_
      00FF40FAH   CODE     ---       receiveDshotDma?_
      00FF414AH   CODE     ---       resetInputCaptureTimer?_
      00000100H   EDATA    BYTE      return_to_center
      00000065H   EDATA    WORD      reverse_speed_threshold
      0000006BH   EDATA    BYTE      rising
*SFR* 000000FFH   DATA     BYTE      RSTCFG
      000000B0H   EDATA    BYTE      running
*SFR* 0000009AH   DATA     BYTE      S2CON
*SFR* 000000ACH   DATA     BYTE      S3CON
*SFR* 000000FDH   DATA     BYTE      S4CON
      00FF3258H   CODE     ---       save_flash_nolib?_
      00FF3B46H   CODE     ---       saveEEpromSettings?_
*SFR* 00000098H   DATA     BYTE      SCON
      000000CDH   EDATA    BYTE      send_telemetry
      0000004DH   EDATA    BYTE      servo_dead_band
      00000049H   EDATA    INT       servo_high_threshold
      00000047H   EDATA    INT       servo_low_threshold
      0000004BH   EDATA    INT       servo_neutral
      000000DCH   EDATA    BYTE      servoPwm
      00000118H   EDATA    INT       servorawinput
      00FF45A2H   CODE     ---       SET_AUTO_RELOAD_PWM?_
      00FF41E2H   CODE     ---       SET_DUTY_CYCLE_ALL?_
      00FF4480H   CODE     ---       SET_PRESCALER_PWM?_
      00FF47FBH   CODE     ---       setCaptureCompare?_
      00FF114EH   CODE     ---       setInput?_
      00FF10A2H   CODE     ---       setInputPolarityRising?_
      00FF45BFH   CODE     ---       setPWMCompare1?_
      00FF45DCH   CODE     ---       setPWMCompare2?_
      00FF45F9H   CODE     ---       setPWMCompare3?_
      00FF47A0H   CODE     ---       setVolume?_
      000000D5H   EDATA    WORD      signaltimecounter
      00FF4892H   CODE     ---       SIN?_
      00000053H   EDATA    BYTE      sine_mode_changeover_thottle_level
      0000005EH   EDATA    BYTE      SINE_MODE_POWER
      000000E0H   EDATA    WORD      smallestnumber
*SFR* 000000CEH   DATA     BYTE      SPCTL
      00010760H   XDATA    ---       speedPid
*SFR* 000000CDH   DATA     BYTE      SPSTAT
      00FF488EH   CODE     ---       SQRT?_
      0000003FH   EDATA    WORD      stall_protect_minimum_duty
      000000C9H   EDATA    WORD      stall_protect_target_interval
      00000045H   EDATA    BYTE      STALL_PROTECTION
      000000C5H   EDATA    FLOAT     stall_protection_adjust
      000107B0H   XDATA    ---       stallPid
      00FF4425H   CODE     ---       startMotor?_
      00000069H   EDATA    CHAR      step
      00FF4686H   CODE     ---       STEP_AB?_
      00FF46CBH   CODE     ---       STEP_AC?_
L251 LINKER/LOCATER V4.66.93.0                                                        12/22/2024  10:45:14  PAGE 15


      00FF46B4H   CODE     ---       STEP_BA?_
      00FF46F8H   CODE     ---       STEP_BC?_
      00FF469DH   CODE     ---       STEP_CA?_
      00FF46E2H   CODE     ---       STEP_CB?_
      00000098H   EDATA    WORD      step_delay
      0000009AH   EDATA    BYTE      stepper_sine
      00FF4398H   CODE     ---       strncpy?_
      00000029H   EDATA    BYTE      STUCK_ROTOR_PROTECTION
      00000071H   EDATA    BYTE      stuckcounter
*SFR* 000000D4H   DATA     BYTE      T3H
*SFR* 000000EFH.1 DATA     BIT       T3IF
*SFR* 000000D5H   DATA     BYTE      T3L
*SFR* 000000DDH.3 DATA     BIT       T3R
*SFR* 000000D2H   DATA     BYTE      T4H
*SFR* 000000D3H   DATA     BYTE      T4L
*SFR* 000000DDH   DATA     BYTE      T4T3M
      00FF489AH   CODE     ---       TAN?_
      000000B9H   EDATA    DWORD     target_e_com_time
*SFR* 00000088H   DATA     BYTE      TCON
      000000CBH   EDATA    WORD      telem_ms_counter
      000000CEH   EDATA    BYTE      telemetry_interval_ms
      0000007EH   EDATA    BYTE      temp_advance
      0000005AH   EDATA    BYTE      TEMPERATURE_LIMIT
*SFR* 00000088H.5 DATA     BIT       TF0
*SFR* 00000088H.7 DATA     BIT       TF1
*SFR* 0000008CH   DATA     BYTE      TH0
*SFR* 0000008DH   DATA     BYTE      TH1
      0000007AH   EDATA    WORD      thiszctime
      00000058H   EDATA    WORD      throttle_max_at_high_rpm
      00000056H   EDATA    WORD      throttle_max_at_low_rpm
*SFR* 0000008AH   DATA     BYTE      TL0
*SFR* 0000008BH   DATA     BYTE      TL1
      00000046H   EDATA    BYTE      TLM_ON_INTERVAL
*SFR* 00000089H   DATA     BYTE      TMOD
      00FF44AAH   CODE     ---       TMR0_Init?_
      00FF44F9H   CODE     ---       TMR0_ISR?_
      00FF3EC8H   CODE     ---       TMR11_Init?_
      00FF4545H   CODE     ---       TMR1_Init?_
      00FF466CH   CODE     ---       TMR3_Init?_
      00FF4633H   CODE     ---       TMR4_Init?_
      00FF44D2H   CODE     ---       TMR4_ISR?_
*SFR* 00000088H.4 DATA     BIT       TR0
*SFR* 00000088H.6 DATA     BIT       TR1
      00FF39E9H   CODE     ---       transfercomplete?_
      000000D3H   EDATA    WORD      twentykhzcounter
      00FF25D1H   CODE     ---       TwentyKhzRoutine?_
      00FF4823H   CODE     ---       twoChannelForward?_
      00FF482DH   CODE     ---       twoChannelReverse?_
      00FF392DH   CODE     ---       UN_PWMB_Init?_
*SFR* 000000DCH   DATA     BYTE      USBCLK
*SFR* 000000F4H   DATA     BYTE      USBCON
      0000005DH   EDATA    BYTE      USE_CURRENT_LIMIT
      00000052H   EDATA    BYTE      USE_HALL_SENSOR
      00000026H   EDATA    BYTE      USE_SIN_START
      000000A6H   EDATA    BYTE      use_speed_control_loop
      00000028H   EDATA    BYTE      VARIABLE_PWM
      00000082H   EDATA    WORD      waitTime
*SFR* 000000C1H   DATA     BYTE      WDT_CONTR
*SFR* 000000ABH   DATA     BYTE      WKTCH
*SFR* 000000E9H   DATA     BYTE      WTST
      00000079H   EDATA    BYTE      zcfound
      00FF336BH   CODE     ---       zcfoundroutine?_
      0000007CH   EDATA    WORD      zero_crosses
      00000101H   EDATA    WORD      zero_input_counter

L251 LINKER/LOCATER V4.66.93.0                                                        12/22/2024  10:45:14  PAGE 16




SYMBOL TABLE OF MODULE:  .\Objects\AM32_AI8051U (functions)

      VALUE       REP       CLASS    TYPE      SYMBOL NAME
      ====================================================
      ---         MODULE    ---      ---       functions
      00FF43F7H   PUBLIC    CODE     ---       delayMicros?_
      00FF3C74H   PUBLIC    CODE     ---       delayMillis?_
      00FF47D2H   PUBLIC    CODE     ---       getAbsDif?_
      00FF2E9FH   PUBLIC    CODE     ---       doPidCalculations?_
      00FF4197H   PUBLIC    CODE     ---       map?_
      000000FFH   SFRSYM    DATA     BYTE      RSTCFG
      000000FDH   SFRSYM    DATA     BYTE      S4CON
      000000F8H   SFRSYM    DATA     BYTE      P7
      000000F4H   SFRSYM    DATA     BYTE      USBCON
      000000EFH.1 SFRSYM    DATA     BIT       T3IF
      000000EFH   SFRSYM    DATA     BYTE      AUXINTIF
      000000EEH   SFRSYM    DATA     BYTE      IP3H
      000000E8H   SFRSYM    DATA     BYTE      P6
      000000E7H   SFRSYM    DATA     BYTE      CMPCR2
      000000E6H   SFRSYM    DATA     BYTE      CMPCR1
      000000DFH   SFRSYM    DATA     BYTE      IP3
      000000DEH   SFRSYM    DATA     BYTE      ADCCFG
      000000DDH.3 SFRSYM    DATA     BIT       T3R
      000000DDH   SFRSYM    DATA     BYTE      T4T3M
      000000D5H   SFRSYM    DATA     BYTE      T3L
      000000D4H   SFRSYM    DATA     BYTE      T3H
      000000D1H   SFRSYM    DATA     BYTE      PSW1
      000000D0H   SFRSYM    DATA     BYTE      PSW
      000000CEH   SFRSYM    DATA     BYTE      SPCTL
      000000CDH   SFRSYM    DATA     BYTE      SPSTAT
      000000C8H   SFRSYM    DATA     BYTE      P5
      000000C7H   SFRSYM    DATA     BYTE      IAP_CONTR
      000000C1H   SFRSYM    DATA     BYTE      WDT_CONTR
      000000C0H   SFRSYM    DATA     BYTE      P4
      000000BFH   SFRSYM    DATA     BYTE      P_SW4
      000000BCH   SFRSYM    DATA     BYTE      ADC_CONTR
      000000BBH   SFRSYM    DATA     BYTE      P_SW3
      000000BAH   SFRSYM    DATA     BYTE      P_SW2
      000000B8H   SFRSYM    DATA     BYTE      IP
      000000B7H   SFRSYM    DATA     BYTE      IPH
      000000B6H   SFRSYM    DATA     BYTE      IP2H
      000000B5H   SFRSYM    DATA     BYTE      IP2
      000000B0H   SFRSYM    DATA     BYTE      P3
      000000AFH   SFRSYM    DATA     BYTE      IE2
      000000ACH   SFRSYM    DATA     BYTE      S3CON
      000000ABH   SFRSYM    DATA     BYTE      WKTCH
      000000A8H   SFRSYM    DATA     BYTE      IE
      000000A2H   SFRSYM    DATA     BYTE      P_SW1
      000000A0H   SFRSYM    DATA     BYTE      P2
      0000009DH   SFRSYM    DATA     BYTE      IRCBAND
      0000009AH   SFRSYM    DATA     BYTE      S2CON
      00000098H   SFRSYM    DATA     BYTE      SCON
      00000097H   SFRSYM    DATA     BYTE      AUXR2
      00000090H   SFRSYM    DATA     BYTE      P1
      0000008FH   SFRSYM    DATA     BYTE      INTCLKO
      0000008EH   SFRSYM    DATA     BYTE      AUXR
      00000089H   SFRSYM    DATA     BYTE      TMOD
      00000088H   SFRSYM    DATA     BYTE      TCON
      00000087H   SFRSYM    DATA     BYTE      PCON
      00000080H   SFRSYM    DATA     BYTE      P0

      00FF4197H   BLOCK     CODE     ---       LVL=0
      DR4         REGSYM    ---      LONG      x
L251 LINKER/LOCATER V4.66.93.0                                                        12/22/2024  10:45:14  PAGE 17


      DR28        REGSYM    ---      LONG      in_min
      FFFFFFFBH   STKSYM    ---      LONG      in_max
      FFFFFFF7H   STKSYM    ---      LONG      out_min
      FFFFFFF3H   STKSYM    ---      LONG      out_max
      00FF4197H   LINE      CODE     ---       #10
      00FF4199H   LINE      CODE     ---       #12
      00FF419DH   LINE      CODE     ---       #13
      00FF419FH   LINE      CODE     ---       #14
      00FF419FH   LINE      CODE     ---       #15
      00FF41ABH   LINE      CODE     ---       #16
      00FF41B3H   LINE      CODE     ---       #17
      00FF41B3H   LINE      CODE     ---       #18
      00FF41E1H   LINE      CODE     ---       #19
      ---         BLOCKEND  ---      ---       LVL=0

      00FF2E9FH   BLOCK     CODE     ---       LVL=0
      REG=7       REGSYM    ---      ---       pidnow
      WR6         REGSYM    ---      INT       actual
      WR4         REGSYM    ---      INT       target
      00FF2E9FH   LINE      CODE     ---       #21
      00FF2EA1H   LINE      CODE     ---       #23
      00FF2EB4H   LINE      CODE     ---       #24
      00FF2EDAH   LINE      CODE     ---       #25
      00FF2EEEH   LINE      CODE     ---       #26
      00FF2EFEH   LINE      CODE     ---       #27
      00FF2EFEH   LINE      CODE     ---       #28
      00FF2F16H   LINE      CODE     ---       #29
      00FF2F30H   LINE      CODE     ---       #30
      00FF2F30H   LINE      CODE     ---       #32
      00FF2F54H   LINE      CODE     ---       #33
      00FF2F63H   LINE      CODE     ---       #35
      00FF2F91H   LINE      CODE     ---       #38
      00FF2FA5H   LINE      CODE     ---       #39
      00FF2FB5H   LINE      CODE     ---       #40
      00FF2FB5H   LINE      CODE     ---       #41
      00FF2FCDH   LINE      CODE     ---       #42
      00FF2FE7H   LINE      CODE     ---       #43
      00FF2FE7H   LINE      CODE     ---       #44
      00FF2FF4H   LINE      CODE     ---       #45
      ---         BLOCKEND  ---      ---       LVL=0

      00FF47D2H   BLOCK     CODE     ---       LVL=0
      WR6         REGSYM    ---      INT       number1
      WR4         REGSYM    ---      INT       number2
      WR6         REGSYM    ---      INT       result
      00FF47D2H   LINE      CODE     ---       #47
      00FF47D2H   LINE      CODE     ---       #48
      00FF47D4H   LINE      CODE     ---       #49
      00FF47DAH   LINE      CODE     ---       #50
      00FF47E0H   LINE      CODE     ---       #51
      00FF47E0H   LINE      CODE     ---       #52
      00FF47E0H   LINE      CODE     ---       #53
      ---         BLOCKEND  ---      ---       LVL=0

      00FF43F7H   BLOCK     CODE     ---       LVL=0
      DR0         REGSYM    ---      DWORD     micros
      00FF43F7H   LINE      CODE     ---       #55
      00FF43F9H   LINE      CODE     ---       #56
      00FF43FCH   LINE      CODE     ---       #57
      00FF441AH   LINE      CODE     ---       #58
      00FF441DH   LINE      CODE     ---       #59
      00FF4420H   LINE      CODE     ---       #60
      00FF4420H   LINE      CODE     ---       #61
      00FF4424H   LINE      CODE     ---       #62
      ---         BLOCKEND  ---      ---       LVL=0
L251 LINKER/LOCATER V4.66.93.0                                                        12/22/2024  10:45:14  PAGE 18



      00FF3C74H   BLOCK     CODE     ---       LVL=0
      DR28        REGSYM    ---      DWORD     millis
      00FF3C74H   LINE      CODE     ---       #64
      00FF3C76H   LINE      CODE     ---       #65
      00FF3C86H   LINE      CODE     ---       #66
      00FF3CCCH   LINE      CODE     ---       #67
      00FF3CDCH   LINE      CODE     ---       #68
      00FF3CECH   LINE      CODE     ---       #69
      00FF3CECH   LINE      CODE     ---       #70
      00FF3CFAH   LINE      CODE     ---       #71
      ---         BLOCKEND  ---      ---       LVL=0

      ---         MODULE    ---      ---       main
      00FF25D1H   PUBLIC    CODE     ---       TwentyKhzRoutine?_
      00FF1A03H   PUBLIC    CODE     ---       main
      000000A5H   PUBLIC    EDATA    BYTE      drive_by_rpm
      000000A6H   PUBLIC    EDATA    BYTE      use_speed_control_loop
      000000A7H   PUBLIC    EDATA    DWORD     MINIMUM_RPM_SPEED_CONTROL
      000000ABH   PUBLIC    EDATA    DWORD     MAXIMUM_RPM_SPEED_CONTROL
      000000AFH   PUBLIC    EDATA    BYTE      armed
      000000B0H   PUBLIC    EDATA    BYTE      running
      000000B1H   PUBLIC    EDATA    WORD      e_rpm
      000000B3H   PUBLIC    EDATA    WORD      k_erpm
      000000B5H   PUBLIC    EDATA    DWORD     e_com_time
      000000B9H   PUBLIC    EDATA    DWORD     target_e_com_time
      000000BDH   PUBLIC    EDATA    BYTE      cell_counter
      000000BEH   PUBLIC    EDATA    WORD      battery_voltage
      000000C0H   PUBLIC    EDATA    WORD      actual_current
      000000C2H   PUBLIC    EDATA    WORD      current_limit_adjust
      000000C4H   PUBLIC    EDATA    BYTE      degrees_celsius
      000000C5H   PUBLIC    EDATA    FLOAT     stall_protection_adjust
      000000C9H   PUBLIC    EDATA    WORD      stall_protect_target_interval
      000000CBH   PUBLIC    EDATA    WORD      telem_ms_counter
      000000CDH   PUBLIC    EDATA    BYTE      send_telemetry
      000000CEH   PUBLIC    EDATA    BYTE      telemetry_interval_ms
      000000CFH   PUBLIC    EDATA    WORD      ledcounter
      000000D1H   PUBLIC    EDATA    WORD      onekhzcounter
      000000D3H   PUBLIC    EDATA    WORD      twentykhzcounter
      000000D5H   PUBLIC    EDATA    WORD      signaltimecounter
      000000D7H   PUBLIC    EDATA    WORD      armed_timeout_counter
      000000D9H   PUBLIC    EDATA    BYTE      fast_accel
      000000DAH   PUBLIC    EDATA    BYTE      maximum_throttle_change_ramp
      00010760H   PUBLIC    XDATA    ---       speedPid
      00010788H   PUBLIC    XDATA    ---       currentPid
      000107B0H   PUBLIC    XDATA    ---       stallPid
      000000FFH   SFRSYM    DATA     BYTE      RSTCFG
      000000FDH   SFRSYM    DATA     BYTE      S4CON
      000000F8H   SFRSYM    DATA     BYTE      P7
      000000F4H   SFRSYM    DATA     BYTE      USBCON
      000000EFH   SFRSYM    DATA     BYTE      AUXINTIF
      000000EEH   SFRSYM    DATA     BYTE      IP3H
      000000E8H   SFRSYM    DATA     BYTE      P6
      000000E7H   SFRSYM    DATA     BYTE      CMPCR2
      000000E6H   SFRSYM    DATA     BYTE      CMPCR1
      000000DFH   SFRSYM    DATA     BYTE      IP3
      000000DEH   SFRSYM    DATA     BYTE      ADCCFG
      000000DDH   SFRSYM    DATA     BYTE      T4T3M
      000000D1H   SFRSYM    DATA     BYTE      PSW1
      000000D0H   SFRSYM    DATA     BYTE      PSW
      000000CEH   SFRSYM    DATA     BYTE      SPCTL
      000000CDH   SFRSYM    DATA     BYTE      SPSTAT
      000000C8H   SFRSYM    DATA     BYTE      P5
      000000C7H   SFRSYM    DATA     BYTE      IAP_CONTR
      000000C1H.4 SFRSYM    DATA     BIT       CLR_WDT
L251 LINKER/LOCATER V4.66.93.0                                                        12/22/2024  10:45:14  PAGE 19


      000000C1H   SFRSYM    DATA     BYTE      WDT_CONTR
      000000C0H   SFRSYM    DATA     BYTE      P4
      000000BFH   SFRSYM    DATA     BYTE      P_SW4
      000000BCH   SFRSYM    DATA     BYTE      ADC_CONTR
      000000BBH   SFRSYM    DATA     BYTE      P_SW3
      000000BAH   SFRSYM    DATA     BYTE      P_SW2
      000000B8H   SFRSYM    DATA     BYTE      IP
      000000B7H   SFRSYM    DATA     BYTE      IPH
      000000B6H   SFRSYM    DATA     BYTE      IP2H
      000000B5H   SFRSYM    DATA     BYTE      IP2
      000000B0H   SFRSYM    DATA     BYTE      P3
      000000AFH   SFRSYM    DATA     BYTE      IE2
      000000ACH   SFRSYM    DATA     BYTE      S3CON
      000000ABH   SFRSYM    DATA     BYTE      WKTCH
      000000A8H.1 SFRSYM    DATA     BIT       ET0
      000000A8H   SFRSYM    DATA     BYTE      IE
      000000A2H   SFRSYM    DATA     BYTE      P_SW1
      000000A0H   SFRSYM    DATA     BYTE      P2
      0000009DH   SFRSYM    DATA     BYTE      IRCBAND
      0000009AH   SFRSYM    DATA     BYTE      S2CON
      00000098H   SFRSYM    DATA     BYTE      SCON
      00000097H   SFRSYM    DATA     BYTE      AUXR2
      00000096H   SFRSYM    DATA     BYTE      P2M0
      00000095H   SFRSYM    DATA     BYTE      P2M1
      00000090H   SFRSYM    DATA     BYTE      P1
      0000008FH   SFRSYM    DATA     BYTE      INTCLKO
      0000008EH   SFRSYM    DATA     BYTE      AUXR
      0000008DH   SFRSYM    DATA     BYTE      TH1
      0000008BH   SFRSYM    DATA     BYTE      TL1
      00000089H   SFRSYM    DATA     BYTE      TMOD
      00000088H   SFRSYM    DATA     BYTE      TCON
      00000087H   SFRSYM    DATA     BYTE      PCON
      00000080H   SFRSYM    DATA     BYTE      P0
      00FF10DEH   SYMBOL    CODE     ---       checkDeviceInfo?_

      00FF25D1H   BLOCK     CODE     ---       LVL=0
      00FF2645H   BLOCK     CODE     NEAR LAB  LVL=1
      000000DBH   SYMBOL    EDATA    BYTE      i
      ---         BLOCKEND  ---      ---       LVL=1
      00FF25D1H   LINE      CODE     ---       #76
      00FF25D1H   LINE      CODE     ---       #77
      00FF25DBH   LINE      CODE     ---       #78
      00FF25E5H   LINE      CODE     ---       #79
      00FF25EFH   LINE      CODE     ---       #80
      00FF25F8H   LINE      CODE     ---       #81
      00FF2601H   LINE      CODE     ---       #82
      00FF260AH   LINE      CODE     ---       #83
      00FF2615H   LINE      CODE     ---       #84
      00FF261FH   LINE      CODE     ---       #85
      00FF2629H   LINE      CODE     ---       #86
      00FF2633H   LINE      CODE     ---       #87
      00FF2639H   LINE      CODE     ---       #88
      00FF2645H   LINE      CODE     ---       #90
      00FF2653H   LINE      CODE     ---       #91
      00FF265AH   LINE      CODE     ---       #92
      00FF265DH   LINE      CODE     ---       #93
      00FF2664H   LINE      CODE     ---       #94
      00FF2667H   LINE      CODE     ---       #95
      00FF267AH   LINE      CODE     ---       #96
      00FF267CH   LINE      CODE     ---       #97
      00FF267FH   LINE      CODE     ---       #98
      00FF267FH   LINE      CODE     ---       #99
      00FF2685H   LINE      CODE     ---       #100
      00FF268AH   LINE      CODE     ---       #101
      00FF268CH   LINE      CODE     ---       #103
L251 LINKER/LOCATER V4.66.93.0                                                        12/22/2024  10:45:14  PAGE 20


      00FF2691H   LINE      CODE     ---       #104
      00FF2697H   LINE      CODE     ---       #105
      00FF2697H   LINE      CODE     ---       #106
      00FF2699H   LINE      CODE     ---       #108
      00FF269FH   LINE      CODE     ---       #109
      00FF269FH   LINE      CODE     ---       #110
      00FF269FH   LINE      CODE     ---       #112
      00FF269FH   LINE      CODE     ---       #114
      00FF26A5H   LINE      CODE     ---       #115
      00FF26AFH   LINE      CODE     ---       #116
      00FF26BCH   LINE      CODE     ---       #117
      00FF26C2H   LINE      CODE     ---       #118
      00FF26C8H   LINE      CODE     ---       #119
      00FF26C8H   LINE      CODE     ---       #122
      00FF26D1H   LINE      CODE     ---       #123
      00FF26DDH   LINE      CODE     ---       #124
      00FF26EDH   LINE      CODE     ---       #125
      00FF26F0H   LINE      CODE     ---       #126
      00FF26F6H   LINE      CODE     ---       #127
      00FF26FCH   LINE      CODE     ---       #128
      00FF2706H   LINE      CODE     ---       #129
      00FF270CH   LINE      CODE     ---       #130
      00FF270FH   LINE      CODE     ---       #131
      00FF2711H   LINE      CODE     ---       #133
      00FF271BH   LINE      CODE     ---       #134
      00FF2721H   LINE      CODE     ---       #135
      00FF2724H   LINE      CODE     ---       #136
      00FF2724H   LINE      CODE     ---       #138
      00FF2724H   LINE      CODE     ---       #141
      00FF2731H   LINE      CODE     ---       #142
      00FF2737H   LINE      CODE     ---       #143
      00FF2743H   LINE      CODE     ---       #144
      00FF2778H   LINE      CODE     ---       #145
      00FF2786H   LINE      CODE     ---       #146
      00FF278EH   LINE      CODE     ---       #147
      00FF278EH   LINE      CODE     ---       #148
      00FF2798H   LINE      CODE     ---       #149
      00FF27A0H   LINE      CODE     ---       #150
      00FF27A0H   LINE      CODE     ---       #152
      00FF27ACH   LINE      CODE     ---       #154
      00FF27D5H   LINE      CODE     ---       #155
      00FF27E4H   LINE      CODE     ---       #156
      00FF27EEH   LINE      CODE     ---       #157
      00FF27EEH   LINE      CODE     ---       #158
      00FF27F9H   LINE      CODE     ---       #159
      00FF27FFH   LINE      CODE     ---       #160
      00FF27FFH   LINE      CODE     ---       #162
      00FF280BH   LINE      CODE     ---       #163
      00FF2842H   LINE      CODE     ---       #164
      00FF284CH   LINE      CODE     ---       #165
      00FF2854H   LINE      CODE     ---       #166
      00FF2854H   LINE      CODE     ---       #167
      00FF285EH   LINE      CODE     ---       #168
      00FF2864H   LINE      CODE     ---       #169
      00FF2864H   LINE      CODE     ---       #170
      00FF286EH   LINE      CODE     ---       #171
      00FF287AH   LINE      CODE     ---       #172
      00FF287AH   LINE      CODE     ---       #174
      00FF287AH   LINE      CODE     ---       #176
      00FF2883H   LINE      CODE     ---       #177
      00FF2897H   LINE      CODE     ---       #178
      00FF289DH   LINE      CODE     ---       #179
      00FF289FH   LINE      CODE     ---       #180
      00FF28A9H   LINE      CODE     ---       #181
      00FF28AFH   LINE      CODE     ---       #182
L251 LINKER/LOCATER V4.66.93.0                                                        12/22/2024  10:45:14  PAGE 21


      00FF28B1H   LINE      CODE     ---       #183
      00FF28B7H   LINE      CODE     ---       #184
      00FF28B7H   LINE      CODE     ---       #185
      00FF28B7H   LINE      CODE     ---       #187
      00FF28CDH   LINE      CODE     ---       #188
      00FF28DFH   LINE      CODE     ---       #189
      00FF28E9H   LINE      CODE     ---       #190
      00FF28EFH   LINE      CODE     ---       #191
      00FF28F7H   LINE      CODE     ---       #192
      00FF28F9H   LINE      CODE     ---       #193
      00FF28FEH   LINE      CODE     ---       #194
      00FF28FEH   LINE      CODE     ---       #195
      00FF2916H   LINE      CODE     ---       #196
      00FF2928H   LINE      CODE     ---       #197
      00FF292DH   LINE      CODE     ---       #198
      00FF2935H   LINE      CODE     ---       #199
      00FF2937H   LINE      CODE     ---       #200
      00FF294BH   LINE      CODE     ---       #201
      00FF2953H   LINE      CODE     ---       #202
      00FF2955H   LINE      CODE     ---       #203
      00FF295DH   LINE      CODE     ---       #204
      00FF295DH   LINE      CODE     ---       #206
      00FF2962H   LINE      CODE     ---       #207
      00FF2962H   LINE      CODE     ---       #208
      00FF2962H   LINE      CODE     ---       #209
      00FF2978H   LINE      CODE     ---       #210
      00FF2978H   LINE      CODE     ---       #211
      00FF2978H   LINE      CODE     ---       #212
      00FF2990H   LINE      CODE     ---       #214
      00FF2992H   LINE      CODE     ---       #216
      00FF2998H   LINE      CODE     ---       #217
      00FF29BAH   LINE      CODE     ---       #218
      00FF29BCH   LINE      CODE     ---       #219
      00FF29D2H   LINE      CODE     ---       #220
      00FF29D2H   LINE      CODE     ---       #221
      00FF29D2H   LINE      CODE     ---       #222
      00FF29DAH   LINE      CODE     ---       #223
      00FF29E1H   LINE      CODE     ---       #224
      00FF29E8H   LINE      CODE     ---       #225
      00FF29E8H   LINE      CODE     ---       #226
      00FF29F2H   LINE      CODE     ---       #227
      ---         BLOCKEND  ---      ---       LVL=0

      00FF10DEH   BLOCK     CODE     ---       LVL=0
      REG=1       REGSYM    ---      ---       devinfo
      00FF10DEH   LINE      CODE     ---       #230
      00FF10DEH   LINE      CODE     ---       #238
      00FF10E6H   LINE      CODE     ---       #240
      00FF110DH   LINE      CODE     ---       #242
      00FF110DH   LINE      CODE     ---       #243
      00FF110DH   LINE      CODE     ---       #245
      00FF111DH   LINE      CODE     ---       #246
      00FF111DH   LINE      CODE     ---       #247
      00FF1129H   LINE      CODE     ---       #248
      00FF112BH   LINE      CODE     ---       #249
      00FF112BH   LINE      CODE     ---       #250
      00FF1137H   LINE      CODE     ---       #251
      00FF1139H   LINE      CODE     ---       #252
      00FF1139H   LINE      CODE     ---       #253
      00FF1145H   LINE      CODE     ---       #254
      00FF1145H   LINE      CODE     ---       #255
      00FF1145H   LINE      CODE     ---       #258
      ---         BLOCKEND  ---      ---       LVL=0

      00FF1A03H   BLOCK     CODE     ---       LVL=0
L251 LINKER/LOCATER V4.66.93.0                                                        12/22/2024  10:45:14  PAGE 22


      00FF1BA1H   BLOCK     CODE     NEAR LAB  LVL=1
      000107D8H   SYMBOL    XDATA    BYTE      i
      ---         BLOCKEND  ---      ---       LVL=1
      00FF1A03H   LINE      CODE     ---       #260
      00FF1A03H   LINE      CODE     ---       #262
      00FF1A06H   LINE      CODE     ---       #264
      00FF1A09H   LINE      CODE     ---       #266
      00FF1A0CH   LINE      CODE     ---       #270
      00FF1A0FH   LINE      CODE     ---       #272
      00FF1A25H   LINE      CODE     ---       #274
      00FF1A35H   LINE      CODE     ---       #275
      00FF1A3BH   LINE      CODE     ---       #276
      00FF1A41H   LINE      CODE     ---       #277
      00FF1A5CH   LINE      CODE     ---       #278
      00FF1A5FH   LINE      CODE     ---       #279
      00FF1A5FH   LINE      CODE     ---       #281
      00FF1A66H   LINE      CODE     ---       #282
      00FF1A6BH   LINE      CODE     ---       #283
      00FF1A6DH   LINE      CODE     ---       #284
      00FF1A73H   LINE      CODE     ---       #285
      00FF1A73H   LINE      CODE     ---       #287
      00FF1A7BH   LINE      CODE     ---       #289
      00FF1A81H   LINE      CODE     ---       #290
      00FF1A86H   LINE      CODE     ---       #291
      00FF1A86H   LINE      CODE     ---       #293
      00FF1A8CH   LINE      CODE     ---       #294
      00FF1A94H   LINE      CODE     ---       #295
      00FF1A9AH   LINE      CODE     ---       #296
      00FF1A9FH   LINE      CODE     ---       #297
      00FF1AA5H   LINE      CODE     ---       #298
      00FF1AAAH   LINE      CODE     ---       #300
      00FF1AAFH   LINE      CODE     ---       #301
      00FF1AB4H   LINE      CODE     ---       #302
      00FF1AC0H   LINE      CODE     ---       #303
      00FF1ACCH   LINE      CODE     ---       #304
      00FF1AD8H   LINE      CODE     ---       #305
      00FF1AD8H   LINE      CODE     ---       #307
      00FF1ADBH   LINE      CODE     ---       #309
      00FF1AE1H   LINE      CODE     ---       #311
      00FF1AE4H   LINE      CODE     ---       #313
      00FF1AE7H   LINE      CODE     ---       #315
      00FF1AEAH   LINE      CODE     ---       #316
      00FF1AF0H   LINE      CODE     ---       #317
      00FF1AF6H   LINE      CODE     ---       #318
      00FF1AF6H   LINE      CODE     ---       #320
      00FF1B0CH   LINE      CODE     ---       #322
      00FF1B0CH   LINE      CODE     ---       #324
      00FF1B12H   LINE      CODE     ---       #326
      00FF1B15H   LINE      CODE     ---       #327
      00FF1B1AH   LINE      CODE     ---       #328
      00FF1B1AH   LINE      CODE     ---       #330
      00FF1B24H   LINE      CODE     ---       #331
      00FF1B2AH   LINE      CODE     ---       #332
      00FF1B30H   LINE      CODE     ---       #333
      00FF1B32H   LINE      CODE     ---       #334
      00FF1B38H   LINE      CODE     ---       #335
      00FF1B3EH   LINE      CODE     ---       #336
      00FF1B3EH   LINE      CODE     ---       #338
      00FF1B41H   LINE      CODE     ---       #339
      00FF1B61H   LINE      CODE     ---       #343
      00FF1B67H   LINE      CODE     ---       #344
      00FF1B94H   LINE      CODE     ---       #345
      00FF1B94H   LINE      CODE     ---       #347
      00FF1BA1H   LINE      CODE     ---       #349
      00FF1BA7H   LINE      CODE     ---       #350
L251 LINKER/LOCATER V4.66.93.0                                                        12/22/2024  10:45:14  PAGE 23


      00FF1BAAH   LINE      CODE     ---       #351
      00FF1BAFH   LINE      CODE     ---       #352
      00FF1BB5H   LINE      CODE     ---       #353
      00FF1BBAH   LINE      CODE     ---       #354
      00FF1BC0H   LINE      CODE     ---       #355
      00FF1BC5H   LINE      CODE     ---       #356
      00FF1BC8H   LINE      CODE     ---       #357
      00FF1BCFH   LINE      CODE     ---       #358
      00FF1BECH   LINE      CODE     ---       #359
      00FF1BFBH   LINE      CODE     ---       #360
      00FF1BFEH   LINE      CODE     ---       #361
      00FF1BFEH   LINE      CODE     ---       #362
      00FF1C08H   LINE      CODE     ---       #363
      00FF1C0BH   LINE      CODE     ---       #364
      00FF1C10H   LINE      CODE     ---       #365
      00FF1C16H   LINE      CODE     ---       #366
      00FF1C1BH   LINE      CODE     ---       #367
      00FF1C21H   LINE      CODE     ---       #368
      00FF1C26H   LINE      CODE     ---       #369
      00FF1C29H   LINE      CODE     ---       #370
      00FF1C30H   LINE      CODE     ---       #371
      00FF1C4DH   LINE      CODE     ---       #372
      00FF1C5CH   LINE      CODE     ---       #373
      00FF1C5FH   LINE      CODE     ---       #374
      00FF1C5FH   LINE      CODE     ---       #377
      00FF1C69H   LINE      CODE     ---       #396
      00FF1C6FH   LINE      CODE     ---       #397
      00FF1C6FH   LINE      CODE     ---       #399
      00FF1C81H   LINE      CODE     ---       #400
      00FF1C86H   LINE      CODE     ---       #401
      00FF1C86H   LINE      CODE     ---       #402
      00FF1C9AH   LINE      CODE     ---       #403
      00FF1C9FH   LINE      CODE     ---       #404
      00FF1C9FH   LINE      CODE     ---       #405
      00FF1CAFH   LINE      CODE     ---       #406
      00FF1CB4H   LINE      CODE     ---       #407
      00FF1CB4H   LINE      CODE     ---       #409
      00FF1CBEH   LINE      CODE     ---       #410
      00FF1CC4H   LINE      CODE     ---       #411
      00FF1CC6H   LINE      CODE     ---       #412
      00FF1CCCH   LINE      CODE     ---       #413
      00FF1CCCH   LINE      CODE     ---       #415
      00FF1CDBH   LINE      CODE     ---       #417
      00FF1CF1H   LINE      CODE     ---       #418
      00FF1D10H   LINE      CODE     ---       #419
      00FF1D16H   LINE      CODE     ---       #420
      00FF1D1FH   LINE      CODE     ---       #421
      00FF1D39H   LINE      CODE     ---       #422
      00FF1D3EH   LINE      CODE     ---       #423
      00FF1D3EH   LINE      CODE     ---       #424
      00FF1D44H   LINE      CODE     ---       #425
      00FF1D4EH   LINE      CODE     ---       #426
      00FF1D56H   LINE      CODE     ---       #427
      00FF1D56H   LINE      CODE     ---       #428
      00FF1D65H   LINE      CODE     ---       #429
      00FF1D65H   LINE      CODE     ---       #430
      00FF1D6AH   LINE      CODE     ---       #431
      00FF1D72H   LINE      CODE     ---       #432
      00FF1D72H   LINE      CODE     ---       #491
      00FF1D77H   LINE      CODE     ---       #492
      00FF1D80H   LINE      CODE     ---       #493
      00FF1D9DH   LINE      CODE     ---       #494
      00FF1DABH   LINE      CODE     ---       #496
      00FF1DB1H   LINE      CODE     ---       #500
      00FF1DE0H   LINE      CODE     ---       #504
L251 LINKER/LOCATER V4.66.93.0                                                        12/22/2024  10:45:14  PAGE 24


      00FF1DE2H   LINE      CODE     ---       #505
      00FF1DEAH   LINE      CODE     ---       #506
      00FF1DEAH   LINE      CODE     ---       #508
      00FF1DF4H   LINE      CODE     ---       #509
      00FF1E31H   LINE      CODE     ---       #510
      00FF1E31H   LINE      CODE     ---       #512
      00FF1E45H   LINE      CODE     ---       #513
      00FF1E4BH   LINE      CODE     ---       #514
      00FF1E4DH   LINE      CODE     ---       #515
      00FF1E74H   LINE      CODE     ---       #516
      00FF1E74H   LINE      CODE     ---       #518
      00FF1E7EH   LINE      CODE     ---       #519
      00FF1E84H   LINE      CODE     ---       #520
      00FF1E84H   LINE      CODE     ---       #522
      00FF1EA9H   LINE      CODE     ---       #524
      00FF1ECEH   LINE      CODE     ---       #525
      00FF1ED7H   LINE      CODE     ---       #527
      00FF1EE7H   LINE      CODE     ---       #528
      00FF1EEDH   LINE      CODE     ---       #529
      00FF1EF7H   LINE      CODE     ---       #530
      00FF1EFCH   LINE      CODE     ---       #531
      00FF1F04H   LINE      CODE     ---       #532
      00FF1F04H   LINE      CODE     ---       #533
      00FF1F0AH   LINE      CODE     ---       #534
      00FF1F0DH   LINE      CODE     ---       #535
      00FF1F10H   LINE      CODE     ---       #537
      00FF1F26H   LINE      CODE     ---       #538
      00FF1F40H   LINE      CODE     ---       #539
      00FF1F46H   LINE      CODE     ---       #541
      00FF1F48H   LINE      CODE     ---       #542
      00FF1F58H   LINE      CODE     ---       #543
      00FF1F5DH   LINE      CODE     ---       #544
      00FF1F60H   LINE      CODE     ---       #545
      00FF1F65H   LINE      CODE     ---       #546
      00FF1F65H   LINE      CODE     ---       #547
      00FF1F68H   LINE      CODE     ---       #548
      00FF1FA7H   LINE      CODE     ---       #549
      00FF1FB0H   LINE      CODE     ---       #550
      00FF1FBEH   LINE      CODE     ---       #551
      00FF1FC1H   LINE      CODE     ---       #552
      00FF1FC7H   LINE      CODE     ---       #553
      00FF1FCAH   LINE      CODE     ---       #554
      00FF1FD4H   LINE      CODE     ---       #555
      00FF1FDAH   LINE      CODE     ---       #556
      00FF1FE2H   LINE      CODE     ---       #557
      00FF1FE2H   LINE      CODE     ---       #558
      00FF1FEBH   LINE      CODE     ---       #559
      00FF1FF6H   LINE      CODE     ---       #560
      00FF1FFBH   LINE      CODE     ---       #561
      00FF2001H   LINE      CODE     ---       #562
      00FF2007H   LINE      CODE     ---       #563
      00FF200FH   LINE      CODE     ---       #564
      00FF2017H   LINE      CODE     ---       #565
      00FF201FH   LINE      CODE     ---       #566
      00FF2025H   LINE      CODE     ---       #567
      00FF202DH   LINE      CODE     ---       #568
      00FF2032H   LINE      CODE     ---       #569
      00FF203AH   LINE      CODE     ---       #571
      00FF2040H   LINE      CODE     ---       #572
      00FF204AH   LINE      CODE     ---       #573
      00FF204AH   LINE      CODE     ---       #574
      00FF204DH   LINE      CODE     ---       #575
      00FF2050H   LINE      CODE     ---       #576
      00FF2050H   LINE      CODE     ---       #578
      00FF2053H   LINE      CODE     ---       #579
L251 LINKER/LOCATER V4.66.93.0                                                        12/22/2024  10:45:14  PAGE 25


      00FF2059H   LINE      CODE     ---       #580
      00FF205FH   LINE      CODE     ---       #581
      00FF2076H   LINE      CODE     ---       #582
      00FF209AH   LINE      CODE     ---       #583
      00FF209DH   LINE      CODE     ---       #584
      00FF20A4H   LINE      CODE     ---       #585
      00FF20AAH   LINE      CODE     ---       #586
      00FF20ACH   LINE      CODE     ---       #587
      00FF20B1H   LINE      CODE     ---       #588
      00FF20B4H   LINE      CODE     ---       #589
      00FF20B4H   LINE      CODE     ---       #590
      00FF20BAH   LINE      CODE     ---       #591
      00FF20BAH   LINE      CODE     ---       #592
      00FF20BAH   LINE      CODE     ---       #593
      ---         BLOCKEND  ---      ---       LVL=0

      ---         MODULE    ---      ---       servo
      00FF29F3H   PUBLIC    CODE     ---       computeServoInput?_
      00FF4453H   PUBLIC    CODE     ---       checkServo?_
      00000111H   PUBLIC    EDATA    BYTE      calibration_required
      00000112H   PUBLIC    EDATA    BYTE      high_calibration_set
      00000113H   PUBLIC    EDATA    BYTE      enter_calibration_counter
      00000114H   PUBLIC    EDATA    BYTE      high_calibration_counter
      00000115H   PUBLIC    EDATA    BYTE      low_calibration_counter
      00000116H   PUBLIC    EDATA    INT       last_high_threshold
      00000118H   PUBLIC    EDATA    INT       servorawinput
      0000011AH   PUBLIC    EDATA    INT       max_servo_deviation
      000000FFH   SFRSYM    DATA     BYTE      RSTCFG
      000000FDH   SFRSYM    DATA     BYTE      S4CON
      000000F8H   SFRSYM    DATA     BYTE      P7
      000000F4H   SFRSYM    DATA     BYTE      USBCON
      000000EFH   SFRSYM    DATA     BYTE      AUXINTIF
      000000EEH   SFRSYM    DATA     BYTE      IP3H
      000000E8H   SFRSYM    DATA     BYTE      P6
      000000E7H   SFRSYM    DATA     BYTE      CMPCR2
      000000E6H   SFRSYM    DATA     BYTE      CMPCR1
      000000DFH   SFRSYM    DATA     BYTE      IP3
      000000DEH   SFRSYM    DATA     BYTE      ADCCFG
      000000DDH   SFRSYM    DATA     BYTE      T4T3M
      000000D1H   SFRSYM    DATA     BYTE      PSW1
      000000D0H   SFRSYM    DATA     BYTE      PSW
      000000CEH   SFRSYM    DATA     BYTE      SPCTL
      000000CDH   SFRSYM    DATA     BYTE      SPSTAT
      000000C8H   SFRSYM    DATA     BYTE      P5
      000000C7H   SFRSYM    DATA     BYTE      IAP_CONTR
      000000C1H   SFRSYM    DATA     BYTE      WDT_CONTR
      000000C0H   SFRSYM    DATA     BYTE      P4
      000000BFH   SFRSYM    DATA     BYTE      P_SW4
      000000BCH   SFRSYM    DATA     BYTE      ADC_CONTR
      000000BBH   SFRSYM    DATA     BYTE      P_SW3
      000000BAH   SFRSYM    DATA     BYTE      P_SW2
      000000B8H   SFRSYM    DATA     BYTE      IP
      000000B7H   SFRSYM    DATA     BYTE      IPH
      000000B6H   SFRSYM    DATA     BYTE      IP2H
      000000B5H   SFRSYM    DATA     BYTE      IP2
      000000B0H   SFRSYM    DATA     BYTE      P3
      000000AFH   SFRSYM    DATA     BYTE      IE2
      000000ACH   SFRSYM    DATA     BYTE      S3CON
      000000ABH   SFRSYM    DATA     BYTE      WKTCH
      000000A8H   SFRSYM    DATA     BYTE      IE
      000000A2H   SFRSYM    DATA     BYTE      P_SW1
      000000A0H   SFRSYM    DATA     BYTE      P2
      0000009DH   SFRSYM    DATA     BYTE      IRCBAND
      0000009AH   SFRSYM    DATA     BYTE      S2CON
      00000098H   SFRSYM    DATA     BYTE      SCON
L251 LINKER/LOCATER V4.66.93.0                                                        12/22/2024  10:45:14  PAGE 26


      00000097H   SFRSYM    DATA     BYTE      AUXR2
      00000090H   SFRSYM    DATA     BYTE      P1
      0000008FH   SFRSYM    DATA     BYTE      INTCLKO
      0000008EH   SFRSYM    DATA     BYTE      AUXR
      00000089H   SFRSYM    DATA     BYTE      TMOD
      00000088H   SFRSYM    DATA     BYTE      TCON
      00000087H   SFRSYM    DATA     BYTE      PCON
      00000080H   SFRSYM    DATA     BYTE      P0

      00FF29F3H   BLOCK     CODE     ---       LVL=0
      00FF29F3H   LINE      CODE     ---       #19
      00FF29F3H   LINE      CODE     ---       #20
      00FF2A31H   LINE      CODE     ---       #21
      00FF2A37H   LINE      CODE     ---       #22
      00FF2A40H   LINE      CODE     ---       #23
      00FF2A49H   LINE      CODE     ---       #24
      00FF2A4FH   LINE      CODE     ---       #25
      00FF2A6DH   LINE      CODE     ---       #26
      00FF2A6DH   LINE      CODE     ---       #27
      00FF2A76H   LINE      CODE     ---       #28
      00FF2A87H   LINE      CODE     ---       #29
      00FF2A8CH   LINE      CODE     ---       #30
      00FF2A8EH   LINE      CODE     ---       #31
      00FF2AC7H   LINE      CODE     ---       #32
      00FF2AD0H   LINE      CODE     ---       #33
      00FF2ADCH   LINE      CODE     ---       #34
      00FF2AF1H   LINE      CODE     ---       #35
      00FF2AF7H   LINE      CODE     ---       #36
      00FF2AFAH   LINE      CODE     ---       #37
      00FF2AFAH   LINE      CODE     ---       #39
      00FF2B02H   LINE      CODE     ---       #40
      00FF2B02H   LINE      CODE     ---       #41
      00FF2B0BH   LINE      CODE     ---       #42
      00FF2B27H   LINE      CODE     ---       #43
      00FF2B30H   LINE      CODE     ---       #44
      00FF2B69H   LINE      CODE     ---       #45
      00FF2B69H   LINE      CODE     ---       #46
      00FF2B72H   LINE      CODE     ---       #47
      00FF2B7EH   LINE      CODE     ---       #48
      00FF2B93H   LINE      CODE     ---       #49
      00FF2B98H   LINE      CODE     ---       #50
      00FF2B9BH   LINE      CODE     ---       #51
      00FF2BA0H   LINE      CODE     ---       #52
      00FF2BA3H   LINE      CODE     ---       #53
      00FF2BA3H   LINE      CODE     ---       #55
      00FF2BA9H   LINE      CODE     ---       #56
      00FF2BACH   LINE      CODE     ---       #57
      00FF2BB5H   LINE      CODE     ---       #58
      00FF2BD7H   LINE      CODE     ---       #59
      00FF2C14H   LINE      CODE     ---       #60
      00FF2C17H   LINE      CODE     ---       #61
      00FF2C58H   LINE      CODE     ---       #62
      00FF2C58H   LINE      CODE     ---       #63
      00FF2C5AH   LINE      CODE     ---       #64
      00FF2C99H   LINE      CODE     ---       #65
      00FF2CA3H   LINE      CODE     ---       #66
      00FF2CA9H   LINE      CODE     ---       #67
      00FF2CA9H   LINE      CODE     ---       #69
      00FF2CAFH   LINE      CODE     ---       #70
      00FF2CAFH   LINE      CODE     ---       #71
      00FF2CB1H   LINE      CODE     ---       #72
      00FF2CB7H   LINE      CODE     ---       #73
      00FF2CB7H   LINE      CODE     ---       #75
      00FF2CC5H   LINE      CODE     ---       #76
      00FF2CD1H   LINE      CODE     ---       #77
L251 LINKER/LOCATER V4.66.93.0                                                        12/22/2024  10:45:14  PAGE 27


      00FF2CE1H   LINE      CODE     ---       #78
      00FF2CEDH   LINE      CODE     ---       #79
      00FF2CEFH   LINE      CODE     ---       #80
      00FF2CF7H   LINE      CODE     ---       #81
      00FF2CF7H   LINE      CODE     ---       #83
      ---         BLOCKEND  ---      ---       LVL=0

      00FF4453H   BLOCK     CODE     ---       LVL=0
      00FF4453H   LINE      CODE     ---       #85
      00FF4453H   LINE      CODE     ---       #86
      00FF4467H   LINE      CODE     ---       #87
      00FF446DH   LINE      CODE     ---       #88
      00FF4473H   LINE      CODE     ---       #89
      00FF4479H   LINE      CODE     ---       #90
      00FF447FH   LINE      CODE     ---       #91
      ---         BLOCKEND  ---      ---       LVL=0

      ---         MODULE    ---      ---       sounds
      00FF3CFBH   PUBLIC    CODE     ---       playStartupTune?_
      00FF404EH   PUBLIC    CODE     ---       playInputTune?_
      00FF3D70H   PUBLIC    CODE     ---       playBrushedStartupTune?_
      00FF3FF4H   PUBLIC    CODE     ---       playInputTune2?_
      00FF3DE4H   PUBLIC    CODE     ---       playBeaconTune3?_
      00FF100EH   PUBLIC    CODE     ---       playDuskingTune?_
      00FF422BH   PUBLIC    CODE     ---       playDefaultTone?_
      00FF4270H   PUBLIC    CODE     ---       playChangedTone?_
      00FF47A0H   PUBLIC    CODE     ---       setVolume?_
      00FF4650H   PUBLIC    CODE     ---       pause?_
      00FF47FBH   PUBLIC    CODE     ---       setCaptureCompare?_
      00FF40A5H   PUBLIC    CODE     ---       playBJNote?_
      00FF4585H   PUBLIC    CODE     ---       getBlueJayNoteFrequency?_
      00FF3580H   PUBLIC    CODE     ---       playBlueJayTune?_
      000107D9H   PUBLIC    XDATA    BYTE      beep_volume
      000000FFH   SFRSYM    DATA     BYTE      RSTCFG
      000000FDH   SFRSYM    DATA     BYTE      S4CON
      000000F8H   SFRSYM    DATA     BYTE      P7
      000000F4H   SFRSYM    DATA     BYTE      USBCON
      000000EFH   SFRSYM    DATA     BYTE      AUXINTIF
      000000EEH   SFRSYM    DATA     BYTE      IP3H
      000000E8H   SFRSYM    DATA     BYTE      P6
      000000E7H   SFRSYM    DATA     BYTE      CMPCR2
      000000E6H   SFRSYM    DATA     BYTE      CMPCR1
      000000DFH   SFRSYM    DATA     BYTE      IP3
      000000DEH   SFRSYM    DATA     BYTE      ADCCFG
      000000DDH   SFRSYM    DATA     BYTE      T4T3M
      000000D1H   SFRSYM    DATA     BYTE      PSW1
      000000D0H   SFRSYM    DATA     BYTE      PSW
      000000CEH   SFRSYM    DATA     BYTE      SPCTL
      000000CDH   SFRSYM    DATA     BYTE      SPSTAT
      000000C8H   SFRSYM    DATA     BYTE      P5
      000000C7H   SFRSYM    DATA     BYTE      IAP_CONTR
      000000C1H.4 SFRSYM    DATA     BIT       CLR_WDT
      000000C1H   SFRSYM    DATA     BYTE      WDT_CONTR
      000000C0H   SFRSYM    DATA     BYTE      P4
      000000BFH   SFRSYM    DATA     BYTE      P_SW4
      000000BCH   SFRSYM    DATA     BYTE      ADC_CONTR
      000000BBH   SFRSYM    DATA     BYTE      P_SW3
      000000BAH   SFRSYM    DATA     BYTE      P_SW2
      000000B8H   SFRSYM    DATA     BYTE      IP
      000000B7H   SFRSYM    DATA     BYTE      IPH
      000000B6H   SFRSYM    DATA     BYTE      IP2H
      000000B5H   SFRSYM    DATA     BYTE      IP2
      000000B0H   SFRSYM    DATA     BYTE      P3
      000000AFH   SFRSYM    DATA     BYTE      IE2
      000000ACH   SFRSYM    DATA     BYTE      S3CON
L251 LINKER/LOCATER V4.66.93.0                                                        12/22/2024  10:45:14  PAGE 28


      000000ABH   SFRSYM    DATA     BYTE      WKTCH
      000000A8H.7 SFRSYM    DATA     BIT       EA
      000000A8H   SFRSYM    DATA     BYTE      IE
      000000A2H   SFRSYM    DATA     BYTE      P_SW1
      000000A0H   SFRSYM    DATA     BYTE      P2
      0000009DH   SFRSYM    DATA     BYTE      IRCBAND
      0000009AH   SFRSYM    DATA     BYTE      S2CON
      00000098H   SFRSYM    DATA     BYTE      SCON
      00000097H   SFRSYM    DATA     BYTE      AUXR2
      00000090H   SFRSYM    DATA     BYTE      P1
      0000008FH   SFRSYM    DATA     BYTE      INTCLKO
      0000008EH   SFRSYM    DATA     BYTE      AUXR
      00000089H   SFRSYM    DATA     BYTE      TMOD
      00000088H   SFRSYM    DATA     BYTE      TCON
      00000087H   SFRSYM    DATA     BYTE      PCON
      00000080H   SFRSYM    DATA     BYTE      P0

      00FF4650H   BLOCK     CODE     ---       LVL=0
      WR14        REGSYM    ---      WORD      ms
      00FF4650H   LINE      CODE     ---       #10
      00FF4654H   LINE      CODE     ---       #11
      00FF4659H   LINE      CODE     ---       #12
      00FF4660H   LINE      CODE     ---       #13
      00FF4669H   LINE      CODE     ---       #15
      ---         BLOCKEND  ---      ---       LVL=0

      00FF47A0H   BLOCK     CODE     ---       LVL=0
      R10         REGSYM    ---      BYTE      volume
      00FF47A0H   LINE      CODE     ---       #17
      00FF47A2H   LINE      CODE     ---       #18
      00FF47A7H   LINE      CODE     ---       #19
      00FF47AAH   LINE      CODE     ---       #20
      00FF47AAH   LINE      CODE     ---       #21
      00FF47B1H   LINE      CODE     ---       #22
      ---         BLOCKEND  ---      ---       LVL=0

      00FF47FBH   BLOCK     CODE     ---       LVL=0
      00FF47FBH   LINE      CODE     ---       #24
      00FF47FBH   LINE      CODE     ---       #25
      00FF4804H   LINE      CODE     ---       #27
      ---         BLOCKEND  ---      ---       LVL=0

      00FF40A5H   BLOCK     CODE     ---       LVL=0
      WR12        REGSYM    ---      WORD      freq
      WR14        REGSYM    ---      WORD      bduration
      00FF40ADH   BLOCK     CODE     NEAR LAB  LVL=1
      FFFFFFFFH   STKSYM    ---      WORD      timerOne_reload
      ---         BLOCKEND  ---      ---       LVL=1
      00FF40A5H   LINE      CODE     ---       #29
      00FF40ADH   LINE      CODE     ---       #30
      00FF40B5H   LINE      CODE     ---       #32
      00FF40BCH   LINE      CODE     ---       #33
      00FF40CFH   LINE      CODE     ---       #35
      00FF40D6H   LINE      CODE     ---       #36
      00FF40EEH   LINE      CODE     ---       #38
      00FF40F5H   LINE      CODE     ---       #39
      ---         BLOCKEND  ---      ---       LVL=0

      00FF4585H   BLOCK     CODE     ---       LVL=0
      R11         REGSYM    ---      BYTE      bjarrayfreq
      00FF4585H   LINE      CODE     ---       #41
      00FF4585H   LINE      CODE     ---       #42
      00FF45A1H   LINE      CODE     ---       #43
      ---         BLOCKEND  ---      ---       LVL=0

L251 LINKER/LOCATER V4.66.93.0                                                        12/22/2024  10:45:14  PAGE 29


      00FF3580H   BLOCK     CODE     ---       LVL=0
      00FF3586H   BLOCK     CODE     NEAR LAB  LVL=1
      WR12        REGSYM    ---      WORD      i
      R15         REGSYM    ---      BYTE      full_time_count
      FFFFFFFFH   STKSYM    ---      WORD      duration
      FFFFFFFDH   STKSYM    ---      WORD      frequency
      ---         BLOCKEND  ---      ---       LVL=1
      00FF3580H   LINE      CODE     ---       #45
      00FF3586H   LINE      CODE     ---       #47
      00FF3588H   LINE      CODE     ---       #50
      00FF358EH   LINE      CODE     ---       #52
      00FF3595H   LINE      CODE     ---       #53
      00FF3598H   LINE      CODE     ---       #54
      00FF359EH   LINE      CODE     ---       #56
      00FF35AEH   LINE      CODE     ---       #57
      00FF35B0H   LINE      CODE     ---       #59
      00FF35B3H   LINE      CODE     ---       #60
      00FF35C2H   LINE      CODE     ---       #61
      00FF35DCH   LINE      CODE     ---       #62
      00FF35E1H   LINE      CODE     ---       #63
      00FF35EAH   LINE      CODE     ---       #64
      00FF35ECH   LINE      CODE     ---       #65
      00FF3600H   LINE      CODE     ---       #66
      00FF363FH   LINE      CODE     ---       #68
      00FF364AH   LINE      CODE     ---       #69
      00FF364AH   LINE      CODE     ---       #70
      00FF364CH   LINE      CODE     ---       #71
      00FF364CH   LINE      CODE     ---       #72
      00FF3657H   LINE      CODE     ---       #73
      00FF365AH   LINE      CODE     ---       #74
      00FF365FH   LINE      CODE     ---       #75
      00FF3666H   LINE      CODE     ---       #76
      00FF366CH   LINE      CODE     ---       #77
      00FF366FH   LINE      CODE     ---       #78
      ---         BLOCKEND  ---      ---       LVL=0

      00FF3CFBH   BLOCK     CODE     ---       LVL=0
      R11         REGSYM    ---      BYTE      value
      00FF3CFBH   LINE      CODE     ---       #80
      00FF3CFBH   LINE      CODE     ---       #81
      00FF3D06H   LINE      CODE     ---       #82
      00FF3D08H   LINE      CODE     ---       #83
      00FF3D0DH   LINE      CODE     ---       #84
      00FF3D10H   LINE      CODE     ---       #85
      00FF3D12H   LINE      CODE     ---       #86
      00FF3D19H   LINE      CODE     ---       #87
      00FF3D1CH   LINE      CODE     ---       #88
      00FF3D22H   LINE      CODE     ---       #89
      00FF3D29H   LINE      CODE     ---       #90
      00FF3D30H   LINE      CODE     ---       #92
      00FF3D36H   LINE      CODE     ---       #93
      00FF3D3DH   LINE      CODE     ---       #94
      00FF3D44H   LINE      CODE     ---       #96
      00FF3D4AH   LINE      CODE     ---       #97
      00FF3D51H   LINE      CODE     ---       #98
      00FF3D58H   LINE      CODE     ---       #100
      00FF3D5BH   LINE      CODE     ---       #101
      00FF3D60H   LINE      CODE     ---       #102
      00FF3D66H   LINE      CODE     ---       #103
      00FF3D66H   LINE      CODE     ---       #105
      00FF3D6DH   LINE      CODE     ---       #106
      00FF3D6FH   LINE      CODE     ---       #107
      ---         BLOCKEND  ---      ---       LVL=0

      00FF3D70H   BLOCK     CODE     ---       LVL=0
L251 LINKER/LOCATER V4.66.93.0                                                        12/22/2024  10:45:14  PAGE 30


      00FF3D70H   LINE      CODE     ---       #109
      00FF3D70H   LINE      CODE     ---       #110
      00FF3D72H   LINE      CODE     ---       #111
      00FF3D79H   LINE      CODE     ---       #112
      00FF3D7CH   LINE      CODE     ---       #113
      00FF3D82H   LINE      CODE     ---       #114
      00FF3D89H   LINE      CODE     ---       #115
      00FF3D90H   LINE      CODE     ---       #116
      00FF3D96H   LINE      CODE     ---       #117
      00FF3D9DH   LINE      CODE     ---       #118
      00FF3DA4H   LINE      CODE     ---       #119
      00FF3DAAH   LINE      CODE     ---       #120
      00FF3DB1H   LINE      CODE     ---       #121
      00FF3DB8H   LINE      CODE     ---       #122
      00FF3DBEH   LINE      CODE     ---       #123
      00FF3DC5H   LINE      CODE     ---       #124
      00FF3DCCH   LINE      CODE     ---       #125
      00FF3DCFH   LINE      CODE     ---       #126
      00FF3DD4H   LINE      CODE     ---       #127
      00FF3DDAH   LINE      CODE     ---       #128
      00FF3DE1H   LINE      CODE     ---       #129
      00FF3DE3H   LINE      CODE     ---       #130
      ---         BLOCKEND  ---      ---       LVL=0

      00FF100EH   BLOCK     CODE     ---       LVL=0
      00FF100EH   LINE      CODE     ---       #132
      00FF100EH   LINE      CODE     ---       #133
      00FF1011H   LINE      CODE     ---       #134
      00FF1018H   LINE      CODE     ---       #135
      00FF101EH   LINE      CODE     ---       #136
      00FF1025H   LINE      CODE     ---       #137
      00FF102CH   LINE      CODE     ---       #138
      00FF1033H   LINE      CODE     ---       #139
      00FF103AH   LINE      CODE     ---       #140
      00FF1041H   LINE      CODE     ---       #141
      00FF1048H   LINE      CODE     ---       #142
      00FF104FH   LINE      CODE     ---       #143
      00FF1056H   LINE      CODE     ---       #144
      00FF105DH   LINE      CODE     ---       #145
      00FF1064H   LINE      CODE     ---       #146
      00FF106BH   LINE      CODE     ---       #147
      00FF1072H   LINE      CODE     ---       #148
      00FF1079H   LINE      CODE     ---       #149
      00FF1080H   LINE      CODE     ---       #150
      00FF1087H   LINE      CODE     ---       #151
      00FF108EH   LINE      CODE     ---       #152
      00FF1091H   LINE      CODE     ---       #153
      00FF1096H   LINE      CODE     ---       #154
      00FF109DH   LINE      CODE     ---       #155
      ---         BLOCKEND  ---      ---       LVL=0

      00FF3FF4H   BLOCK     CODE     ---       LVL=0
      00FF3FF4H   LINE      CODE     ---       #157
      00FF3FF4H   LINE      CODE     ---       #158
      00FF3FFBH   LINE      CODE     ---       #159
      00FF3FFDH   LINE      CODE     ---       #160
      00FF4000H   LINE      CODE     ---       #161
      00FF4007H   LINE      CODE     ---       #162
      00FF400AH   LINE      CODE     ---       #163
      00FF4010H   LINE      CODE     ---       #164
      00FF4017H   LINE      CODE     ---       #165
      00FF401EH   LINE      CODE     ---       #166
      00FF4025H   LINE      CODE     ---       #167
      00FF402CH   LINE      CODE     ---       #168
      00FF402FH   LINE      CODE     ---       #169
L251 LINKER/LOCATER V4.66.93.0                                                        12/22/2024  10:45:14  PAGE 31


      00FF4036H   LINE      CODE     ---       #170
      00FF4039H   LINE      CODE     ---       #171
      00FF403EH   LINE      CODE     ---       #172
      00FF4044H   LINE      CODE     ---       #173
      00FF404BH   LINE      CODE     ---       #174
      00FF404DH   LINE      CODE     ---       #175
      ---         BLOCKEND  ---      ---       LVL=0

      00FF404EH   BLOCK     CODE     ---       LVL=0
      00FF404EH   LINE      CODE     ---       #177
      00FF404EH   LINE      CODE     ---       #178
      00FF4050H   LINE      CODE     ---       #179
      00FF4057H   LINE      CODE     ---       #180
      00FF405AH   LINE      CODE     ---       #181
      00FF4061H   LINE      CODE     ---       #182
      00FF4064H   LINE      CODE     ---       #183
      00FF406AH   LINE      CODE     ---       #184
      00FF4071H   LINE      CODE     ---       #185
      00FF4078H   LINE      CODE     ---       #186
      00FF407FH   LINE      CODE     ---       #187
      00FF4086H   LINE      CODE     ---       #188
      00FF408DH   LINE      CODE     ---       #189
      00FF4090H   LINE      CODE     ---       #190
      00FF4095H   LINE      CODE     ---       #191
      00FF409BH   LINE      CODE     ---       #192
      00FF40A2H   LINE      CODE     ---       #193
      00FF40A4H   LINE      CODE     ---       #194
      ---         BLOCKEND  ---      ---       LVL=0

      00FF422BH   BLOCK     CODE     ---       LVL=0
      00FF422BH   LINE      CODE     ---       #196
      00FF422BH   LINE      CODE     ---       #197
      00FF4232H   LINE      CODE     ---       #198
      00FF4239H   LINE      CODE     ---       #199
      00FF423CH   LINE      CODE     ---       #200
      00FF4242H   LINE      CODE     ---       #201
      00FF4249H   LINE      CODE     ---       #202
      00FF424CH   LINE      CODE     ---       #203
      00FF4253H   LINE      CODE     ---       #204
      00FF425AH   LINE      CODE     ---       #205
      00FF425DH   LINE      CODE     ---       #206
      00FF4262H   LINE      CODE     ---       #207
      00FF4268H   LINE      CODE     ---       #208
      00FF426FH   LINE      CODE     ---       #209
      ---         BLOCKEND  ---      ---       LVL=0

      00FF4270H   BLOCK     CODE     ---       LVL=0
      00FF4270H   LINE      CODE     ---       #211
      00FF4270H   LINE      CODE     ---       #212
      00FF4277H   LINE      CODE     ---       #213
      00FF427EH   LINE      CODE     ---       #214
      00FF4281H   LINE      CODE     ---       #215
      00FF4287H   LINE      CODE     ---       #216
      00FF428EH   LINE      CODE     ---       #217
      00FF4291H   LINE      CODE     ---       #218
      00FF4298H   LINE      CODE     ---       #219
      00FF429FH   LINE      CODE     ---       #220
      00FF42A2H   LINE      CODE     ---       #221
      00FF42A7H   LINE      CODE     ---       #222
      00FF42ADH   LINE      CODE     ---       #223
      00FF42B4H   LINE      CODE     ---       #224
      ---         BLOCKEND  ---      ---       LVL=0

      00FF3DE4H   BLOCK     CODE     ---       LVL=0
      000107DAH   SYMBOL    XDATA    CHAR      i
L251 LINKER/LOCATER V4.66.93.0                                                        12/22/2024  10:45:14  PAGE 32


      00FF3DE4H   LINE      CODE     ---       #226
      00FF3DE4H   LINE      CODE     ---       #228
      00FF3DEBH   LINE      CODE     ---       #229
      00FF3DEDH   LINE      CODE     ---       #230
      00FF3DF0H   LINE      CODE     ---       #231
      00FF3DF8H   LINE      CODE     ---       #232
      00FF3DFBH   LINE      CODE     ---       #233
      00FF3E10H   LINE      CODE     ---       #234
      00FF3E24H   LINE      CODE     ---       #235
      00FF3E2BH   LINE      CODE     ---       #236
      00FF3E40H   LINE      CODE     ---       #237
      00FF3E43H   LINE      CODE     ---       #238
      00FF3E48H   LINE      CODE     ---       #239
      00FF3E4EH   LINE      CODE     ---       #240
      00FF3E55H   LINE      CODE     ---       #241
      00FF3E57H   LINE      CODE     ---       #242
      ---         BLOCKEND  ---      ---       LVL=0

      ---         MODULE    ---      ---       commutate
      00FF3855H   PUBLIC    CODE     ---       commutate?_
      00FF3769H   PUBLIC    CODE     ---       interruptRoutine?_
      00FF3BE6H   PUBLIC    CODE     ---       PeriodElapsedCallback?_
      00FF336BH   PUBLIC    CODE     ---       zcfoundroutine?_
      00FF3F2EH   PUBLIC    CODE     ---       getBemfState?_
      00FF2CF8H   PUBLIC    CODE     ---       advanceincrement?_
      00FF4425H   PUBLIC    CODE     ---       startMotor?_
      00000069H   PUBLIC    EDATA    CHAR      step
      0000006AH   PUBLIC    EDATA    BYTE      forward
      0000006BH   PUBLIC    EDATA    BYTE      rising
      0000006CH   PUBLIC    EDATA    BYTE      filter_level
      0000006DH   PUBLIC    EDATA    BYTE      desync_check
      0000006EH   PUBLIC    EDATA    BYTE      desync_happened
      0000006FH   PUBLIC    EDATA    BYTE      prop_brake_active
      00000070H   PUBLIC    EDATA    BYTE      old_routine
      00000071H   PUBLIC    EDATA    BYTE      stuckcounter
      00000072H   PUBLIC    EDATA    BYTE      bemfcounter
      00000073H   PUBLIC    EDATA    BYTE      min_bemf_counts_up
      00000074H   PUBLIC    EDATA    BYTE      min_bemf_counts_down
      00000075H   PUBLIC    EDATA    BYTE      bemf_timeout
      00000076H   PUBLIC    EDATA    BYTE      bemf_timeout_happened
      00000077H   PUBLIC    EDATA    BYTE      bad_count
      00000078H   PUBLIC    EDATA    BYTE      bad_count_threshold
      00000079H   PUBLIC    EDATA    BYTE      zcfound
      0000007AH   PUBLIC    EDATA    WORD      thiszctime
      0000007CH   PUBLIC    EDATA    WORD      zero_crosses
      0000007EH   PUBLIC    EDATA    BYTE      temp_advance
      0000007FH   PUBLIC    EDATA    BYTE      auto_advance_level
      00000080H   PUBLIC    EDATA    WORD      advance
      00000082H   PUBLIC    EDATA    WORD      waitTime
      00000084H   PUBLIC    EDATA    WORD      average_interval
      00000086H   PUBLIC    EDATA    WORD      last_average_interval
      00000088H   PUBLIC    EDATA    WORD      commutation_interval
      0000008AH   PUBLIC    EDATA    ---       commutation_intervals
      00000096H   PUBLIC    EDATA    WORD      last_commutation_interval
      00000098H   PUBLIC    EDATA    WORD      step_delay
      0000009AH   PUBLIC    EDATA    BYTE      stepper_sine
      0000009BH   PUBLIC    EDATA    BYTE      changeover_step
      0000009CH   PUBLIC    EDATA    BYTE      do_once_sinemode
      0000009DH   PUBLIC    EDATA    INT       phase_A_position
      0000009FH   PUBLIC    EDATA    INT       phase_B_position
      000000A1H   PUBLIC    EDATA    INT       phase_C_position
      00010000H   PUBLIC    XDATA    ---       pwmSin
      000000FFH   SFRSYM    DATA     BYTE      RSTCFG
      000000FDH   SFRSYM    DATA     BYTE      S4CON
      000000F8H   SFRSYM    DATA     BYTE      P7
L251 LINKER/LOCATER V4.66.93.0                                                        12/22/2024  10:45:14  PAGE 33


      000000F4H   SFRSYM    DATA     BYTE      USBCON
      000000EFH   SFRSYM    DATA     BYTE      AUXINTIF
      000000EEH   SFRSYM    DATA     BYTE      IP3H
      000000E8H   SFRSYM    DATA     BYTE      P6
      000000E7H   SFRSYM    DATA     BYTE      CMPCR2
      000000E6H.0 SFRSYM    DATA     BIT       CMPRES
      000000E6H   SFRSYM    DATA     BYTE      CMPCR1
      000000DFH   SFRSYM    DATA     BYTE      IP3
      000000DEH   SFRSYM    DATA     BYTE      ADCCFG
      000000DDH   SFRSYM    DATA     BYTE      T4T3M
      000000D1H   SFRSYM    DATA     BYTE      PSW1
      000000D0H   SFRSYM    DATA     BYTE      PSW
      000000CEH   SFRSYM    DATA     BYTE      SPCTL
      000000CDH   SFRSYM    DATA     BYTE      SPSTAT
      000000C8H   SFRSYM    DATA     BYTE      P5
      000000C7H   SFRSYM    DATA     BYTE      IAP_CONTR
      000000C1H   SFRSYM    DATA     BYTE      WDT_CONTR
      000000C0H   SFRSYM    DATA     BYTE      P4
      000000BFH   SFRSYM    DATA     BYTE      P_SW4
      000000BCH   SFRSYM    DATA     BYTE      ADC_CONTR
      000000BBH   SFRSYM    DATA     BYTE      P_SW3
      000000BAH   SFRSYM    DATA     BYTE      P_SW2
      000000B8H   SFRSYM    DATA     BYTE      IP
      000000B7H   SFRSYM    DATA     BYTE      IPH
      000000B6H   SFRSYM    DATA     BYTE      IP2H
      000000B5H   SFRSYM    DATA     BYTE      IP2
      000000B0H   SFRSYM    DATA     BYTE      P3
      000000AFH   SFRSYM    DATA     BYTE      IE2
      000000ACH   SFRSYM    DATA     BYTE      S3CON
      000000ABH   SFRSYM    DATA     BYTE      WKTCH
      000000A8H.1 SFRSYM    DATA     BIT       ET0
      000000A8H.7 SFRSYM    DATA     BIT       EA
      000000A8H   SFRSYM    DATA     BYTE      IE
      000000A2H   SFRSYM    DATA     BYTE      P_SW1
      000000A0H   SFRSYM    DATA     BYTE      P2
      0000009DH   SFRSYM    DATA     BYTE      IRCBAND
      0000009AH   SFRSYM    DATA     BYTE      S2CON
      00000098H   SFRSYM    DATA     BYTE      SCON
      00000097H   SFRSYM    DATA     BYTE      AUXR2
      00000090H   SFRSYM    DATA     BYTE      P1
      0000008FH   SFRSYM    DATA     BYTE      INTCLKO
      0000008EH   SFRSYM    DATA     BYTE      AUXR
      0000008DH   SFRSYM    DATA     BYTE      TH1
      0000008CH   SFRSYM    DATA     BYTE      TH0
      0000008BH   SFRSYM    DATA     BYTE      TL1
      0000008AH   SFRSYM    DATA     BYTE      TL0
      00000089H   SFRSYM    DATA     BYTE      TMOD
      00000088H.4 SFRSYM    DATA     BIT       TR0
      00000088H.5 SFRSYM    DATA     BIT       TF0
      00000088H   SFRSYM    DATA     BYTE      TCON
      00000087H   SFRSYM    DATA     BYTE      PCON
      00000080H   SFRSYM    DATA     BYTE      P0

      00FF3855H   BLOCK     CODE     ---       LVL=0
      00FF3855H   LINE      CODE     ---       #80
      00FF3855H   LINE      CODE     ---       #81
      00FF385BH   LINE      CODE     ---       #82
      00FF3864H   LINE      CODE     ---       #83
      00FF386DH   LINE      CODE     ---       #84
      00FF3872H   LINE      CODE     ---       #85
      00FF3878H   LINE      CODE     ---       #86
      00FF3878H   LINE      CODE     ---       #87
      00FF3886H   LINE      CODE     ---       #88
      00FF3888H   LINE      CODE     ---       #89
      00FF3891H   LINE      CODE     ---       #90
L251 LINKER/LOCATER V4.66.93.0                                                        12/22/2024  10:45:14  PAGE 34


      00FF389AH   LINE      CODE     ---       #91
      00FF38A0H   LINE      CODE     ---       #92
      00FF38A6H   LINE      CODE     ---       #93
      00FF38A6H   LINE      CODE     ---       #94
      00FF38C2H   LINE      CODE     ---       #95
      00FF38C2H   LINE      CODE     ---       #96
      00FF38C4H   LINE      CODE     ---       #97
      00FF38CAH   LINE      CODE     ---       #98
      00FF38D8H   LINE      CODE     ---       #99
      00FF38D8H   LINE      CODE     ---       #100
      00FF38DAH   LINE      CODE     ---       #102
      00FF38E0H   LINE      CODE     ---       #103
      00FF38F0H   LINE      CODE     ---       #104
      00FF38F2H   LINE      CODE     ---       #105
      00FF3902H   LINE      CODE     ---       #106
      00FF3902H   LINE      CODE     ---       #108
      00FF390CH   LINE      CODE     ---       #109
      00FF3912H   LINE      CODE     ---       #110
      00FF3912H   LINE      CODE     ---       #111
      00FF3917H   LINE      CODE     ---       #112
      00FF391CH   LINE      CODE     ---       #113
      00FF392CH   LINE      CODE     ---       #114
      ---         BLOCKEND  ---      ---       LVL=0

      00FF3769H   BLOCK     CODE     ---       LVL=0
      000000A3H   SYMBOL    EDATA    BYTE      i
      00FF3769H   LINE      CODE     ---       #116
      00FF3769H   LINE      CODE     ---       #118
      00FF3773H   LINE      CODE     ---       #119
      00FF37A0H   LINE      CODE     ---       #120
      00FF37A0H   LINE      CODE     ---       #121
      00FF37A0H   LINE      CODE     ---       #122
      00FF37A9H   LINE      CODE     ---       #124
      00FF37B2H   LINE      CODE     ---       #125
      00FF37C2H   LINE      CODE     ---       #126
      00FF37C8H   LINE      CODE     ---       #127
      00FF37CBH   LINE      CODE     ---       #128
      00FF37CBH   LINE      CODE     ---       #130
      00FF37D2H   LINE      CODE     ---       #131
      00FF37DDH   LINE      CODE     ---       #132
      00FF37DDH   LINE      CODE     ---       #133
      00FF37F0H   LINE      CODE     ---       #135
      00FF37F2H   LINE      CODE     ---       #136
      00FF3802H   LINE      CODE     ---       #137
      00FF3816H   LINE      CODE     ---       #138
      00FF381CH   LINE      CODE     ---       #140
      00FF3852H   LINE      CODE     ---       #141
      00FF3854H   LINE      CODE     ---       #142
      ---         BLOCKEND  ---      ---       LVL=0

      00FF3BE6H   BLOCK     CODE     ---       LVL=0
      00FF3BE6H   LINE      CODE     ---       #145
      00FF3BE6H   LINE      CODE     ---       #146
      00FF3BE8H   LINE      CODE     ---       #147
      00FF3BEBH   LINE      CODE     ---       #148
      00FF3C01H   LINE      CODE     ---       #149
      00FF3C07H   LINE      CODE     ---       #150
      00FF3C1DH   LINE      CODE     ---       #151
      00FF3C1FH   LINE      CODE     ---       #152
      00FF3C3BH   LINE      CODE     ---       #153
      00FF3C3BH   LINE      CODE     ---       #154
      00FF3C49H   LINE      CODE     ---       #155
      00FF3C4FH   LINE      CODE     ---       #156
      00FF3C5FH   LINE      CODE     ---       #157
      00FF3C5FH   LINE      CODE     ---       #158
L251 LINKER/LOCATER V4.66.93.0                                                        12/22/2024  10:45:14  PAGE 35


      00FF3C69H   LINE      CODE     ---       #159
      00FF3C73H   LINE      CODE     ---       #160
      ---         BLOCKEND  ---      ---       LVL=0

      00FF336BH   BLOCK     CODE     ---       LVL=0
      00FF336BH   LINE      CODE     ---       #163
      00FF336BH   LINE      CODE     ---       #164
      00FF337FH   LINE      CODE     ---       #165
      00FF3385H   LINE      CODE     ---       #166
      00FF339BH   LINE      CODE     ---       #167
      00FF33ABH   LINE      CODE     ---       #168
      00FF33B9H   LINE      CODE     ---       #170
      00FF33BBH   LINE      CODE     ---       #171
      00FF33C5H   LINE      CODE     ---       #172
      00FF33C5H   LINE      CODE     ---       #173
      00FF33DBH   LINE      CODE     ---       #175
      00FF3409H   LINE      CODE     ---       #176
      00FF340CH   LINE      CODE     ---       #177
      00FF3411H   LINE      CODE     ---       #178
      00FF3416H   LINE      CODE     ---       #180
      00FF3420H   LINE      CODE     ---       #181
      00FF342CH   LINE      CODE     ---       #182
      00FF3440H   LINE      CODE     ---       #183
      00FF3445H   LINE      CODE     ---       #184
      00FF3455H   LINE      CODE     ---       #185
      00FF3457H   LINE      CODE     ---       #187
      00FF3461H   LINE      CODE     ---       #188
      00FF3466H   LINE      CODE     ---       #189
      00FF3476H   LINE      CODE     ---       #190
      00FF3476H   LINE      CODE     ---       #192
      ---         BLOCKEND  ---      ---       LVL=0

      00FF3F2EH   BLOCK     CODE     ---       LVL=0
      000000A4H   SYMBOL    EDATA    BYTE      current_state
      00FF3F2EH   LINE      CODE     ---       #194
      00FF3F2EH   LINE      CODE     ---       #196
      00FF3F38H   LINE      CODE     ---       #197
      00FF3F3EH   LINE      CODE     ---       #198
      00FF3F44H   LINE      CODE     ---       #199
      00FF3F4DH   LINE      CODE     ---       #200
      00FF3F4FH   LINE      CODE     ---       #201
      00FF3F58H   LINE      CODE     ---       #202
      00FF3F62H   LINE      CODE     ---       #203
      00FF3F67H   LINE      CODE     ---       #204
      00FF3F67H   LINE      CODE     ---       #206
      00FF3F69H   LINE      CODE     ---       #207
      00FF3F6FH   LINE      CODE     ---       #208
      00FF3F78H   LINE      CODE     ---       #209
      00FF3F7AH   LINE      CODE     ---       #210
      00FF3F83H   LINE      CODE     ---       #211
      00FF3F8DH   LINE      CODE     ---       #212
      00FF3F92H   LINE      CODE     ---       #213
      00FF3F92H   LINE      CODE     ---       #215
      00FF3F92H   LINE      CODE     ---       #216
      ---         BLOCKEND  ---      ---       LVL=0

      00FF2CF8H   BLOCK     CODE     ---       LVL=0
      000105A0H   SYMBOL    XDATA    LONG      compareone
      000105A4H   SYMBOL    XDATA    LONG      comparetwo
      000105A8H   SYMBOL    XDATA    LONG      comparethree
      00FF2CF8H   LINE      CODE     ---       #218
      00FF2CF8H   LINE      CODE     ---       #222
      00FF2CFEH   LINE      CODE     ---       #223
      00FF2D08H   LINE      CODE     ---       #224
      00FF2D12H   LINE      CODE     ---       #225
L251 LINKER/LOCATER V4.66.93.0                                                        12/22/2024  10:45:14  PAGE 36


      00FF2D18H   LINE      CODE     ---       #226
      00FF2D18H   LINE      CODE     ---       #227
      00FF2D22H   LINE      CODE     ---       #228
      00FF2D2CH   LINE      CODE     ---       #229
      00FF2D32H   LINE      CODE     ---       #230
      00FF2D32H   LINE      CODE     ---       #231
      00FF2D3CH   LINE      CODE     ---       #232
      00FF2D46H   LINE      CODE     ---       #233
      00FF2D4CH   LINE      CODE     ---       #234
      00FF2D4EH   LINE      CODE     ---       #236
      00FF2D58H   LINE      CODE     ---       #237
      00FF2D62H   LINE      CODE     ---       #238
      00FF2D6AH   LINE      CODE     ---       #239
      00FF2D6AH   LINE      CODE     ---       #240
      00FF2D74H   LINE      CODE     ---       #241
      00FF2D7EH   LINE      CODE     ---       #242
      00FF2D86H   LINE      CODE     ---       #243
      00FF2D86H   LINE      CODE     ---       #244
      00FF2D90H   LINE      CODE     ---       #245
      00FF2D9AH   LINE      CODE     ---       #246
      00FF2DA2H   LINE      CODE     ---       #247
      00FF2DA2H   LINE      CODE     ---       #250
      00FF2DE9H   LINE      CODE     ---       #251
      00FF2E30H   LINE      CODE     ---       #252
      00FF2E77H   LINE      CODE     ---       #254
      00FF2E84H   LINE      CODE     ---       #255
      00FF2E91H   LINE      CODE     ---       #256
      00FF2E9EH   LINE      CODE     ---       #257
      ---         BLOCKEND  ---      ---       LVL=0

      00FF4425H   BLOCK     CODE     ---       LVL=0
      00FF4425H   LINE      CODE     ---       #259
      00FF4425H   LINE      CODE     ---       #260
      00FF442BH   LINE      CODE     ---       #261
      00FF442EH   LINE      CODE     ---       #262
      00FF4436H   LINE      CODE     ---       #263
      00FF443CH   LINE      CODE     ---       #264
      00FF4442H   LINE      CODE     ---       #265
      00FF4442H   LINE      CODE     ---       #266
      00FF4452H   LINE      CODE     ---       #267
      ---         BLOCKEND  ---      ---       LVL=0

      ---         MODULE    ---      ---       eeprom
      00FF3258H   PUBLIC    CODE     ---       save_flash_nolib?_
      00FF47B2H   PUBLIC    CODE     ---       read_flash_bin?_
      00FF20BDH   PUBLIC    CODE     ---       loadEEpromSettings?_
      00FF3B46H   PUBLIC    CODE     ---       saveEEpromSettings?_
      00000020H   PUBLIC    EDATA    DWORD     eeprom_address
      00000024H   PUBLIC    EDATA    BYTE      BI_DIRECTION
      00000025H   PUBLIC    EDATA    BYTE      DIR_REVERSED
      00000026H   PUBLIC    EDATA    BYTE      USE_SIN_START
      00000027H   PUBLIC    EDATA    BYTE      COMP_PWM
      00000028H   PUBLIC    EDATA    BYTE      VARIABLE_PWM
      00000029H   PUBLIC    EDATA    BYTE      STUCK_ROTOR_PROTECTION
      0000002AH   PUBLIC    EDATA    BYTE      ADVANCE_LEVEL
      0000002BH   PUBLIC    EDATA    WORD      PWM_MAX_ARR
      0000002DH   PUBLIC    EDATA    WORD      PWM_ARR
      0000002FH   PUBLIC    EDATA    LONG      min_startup_duty_cycle
      00000033H   PUBLIC    EDATA    LONG      max_startup_duty_cycle
      00000037H   PUBLIC    EDATA    LONG      minimum_duty_cycle
      0000003BH   PUBLIC    EDATA    LONG      maximum_duty_cycle
      0000003FH   PUBLIC    EDATA    WORD      stall_protect_minimum_duty
      00000041H   PUBLIC    EDATA    WORD      MOTOR_KV
      00000043H   PUBLIC    EDATA    BYTE      MOTOR_POLES
      00000044H   PUBLIC    EDATA    BYTE      BRAKE_ON_STOP
L251 LINKER/LOCATER V4.66.93.0                                                        12/22/2024  10:45:14  PAGE 37


      00000045H   PUBLIC    EDATA    BYTE      STALL_PROTECTION
      00000046H   PUBLIC    EDATA    BYTE      TLM_ON_INTERVAL
      00000047H   PUBLIC    EDATA    INT       servo_low_threshold
      00000049H   PUBLIC    EDATA    INT       servo_high_threshold
      0000004BH   PUBLIC    EDATA    INT       servo_neutral
      0000004DH   PUBLIC    EDATA    BYTE      servo_dead_band
      0000004EH   PUBLIC    EDATA    BYTE      LOW_VOLTAGE_CUTOFF
      0000004FH   PUBLIC    EDATA    WORD      low_cell_volt_cutoff
      00000051H   PUBLIC    EDATA    BYTE      RC_CAR_REVERSE
      00000052H   PUBLIC    EDATA    BYTE      USE_HALL_SENSOR
      00000053H   PUBLIC    EDATA    BYTE      sine_mode_changeover_thottle_level
      00000054H   PUBLIC    EDATA    BYTE      DRAG_BRAKE_STRENGTH
      00000055H   PUBLIC    EDATA    BYTE      dead_time_override
      00000056H   PUBLIC    EDATA    WORD      throttle_max_at_low_rpm
      00000058H   PUBLIC    EDATA    WORD      throttle_max_at_high_rpm
      0000005AH   PUBLIC    EDATA    BYTE      TEMPERATURE_LIMIT
      0000005BH   PUBLIC    EDATA    WORD      current_limit
      0000005DH   PUBLIC    EDATA    BYTE      USE_CURRENT_LIMIT
      0000005EH   PUBLIC    EDATA    BYTE      SINE_MODE_POWER
      0000005FH   PUBLIC    EDATA    BYTE      AUTO_ADVANCE
      00000060H   PUBLIC    EDATA    BYTE      low_rpm_throttle_limit
      00000061H   PUBLIC    EDATA    WORD      low_rpm_level
      00000063H   PUBLIC    EDATA    WORD      high_rpm_level
      00000065H   PUBLIC    EDATA    WORD      reverse_speed_threshold
      00000067H   PUBLIC    EDATA    BYTE      eeprom_layout_version
      00000068H   PUBLIC    EDATA    BYTE      play_tone_flag
      000106ACH   PUBLIC    XDATA    ---       eepromBuffer
      000000FFH   SFRSYM    DATA     BYTE      RSTCFG
      000000FDH   SFRSYM    DATA     BYTE      S4CON
      000000F8H   SFRSYM    DATA     BYTE      P7
      000000F6H   SFRSYM    DATA     BYTE      IAP_ADDRE
      000000F4H   SFRSYM    DATA     BYTE      USBCON
      000000EFH   SFRSYM    DATA     BYTE      AUXINTIF
      000000EEH   SFRSYM    DATA     BYTE      IP3H
      000000E8H   SFRSYM    DATA     BYTE      P6
      000000E7H   SFRSYM    DATA     BYTE      CMPCR2
      000000E6H   SFRSYM    DATA     BYTE      CMPCR1
      000000DFH   SFRSYM    DATA     BYTE      IP3
      000000DEH   SFRSYM    DATA     BYTE      ADCCFG
      000000DDH   SFRSYM    DATA     BYTE      T4T3M
      000000D1H   SFRSYM    DATA     BYTE      PSW1
      000000D0H   SFRSYM    DATA     BYTE      PSW
      000000CEH   SFRSYM    DATA     BYTE      SPCTL
      000000CDH   SFRSYM    DATA     BYTE      SPSTAT
      000000C8H   SFRSYM    DATA     BYTE      P5
      000000C7H.4 SFRSYM    DATA     BIT       CMD_FAIL
      000000C7H.7 SFRSYM    DATA     BIT       IAPEN
      000000C7H   SFRSYM    DATA     BYTE      IAP_CONTR
      000000C6H   SFRSYM    DATA     BYTE      IAP_TRIG
      000000C5H   SFRSYM    DATA     BYTE      IAP_CMD
      000000C4H   SFRSYM    DATA     BYTE      IAP_ADDRL
      000000C3H   SFRSYM    DATA     BYTE      IAP_ADDRH
      000000C2H   SFRSYM    DATA     BYTE      IAP_DATA
      000000C1H   SFRSYM    DATA     BYTE      WDT_CONTR
      000000C0H   SFRSYM    DATA     BYTE      P4
      000000BFH   SFRSYM    DATA     BYTE      P_SW4
      000000BCH   SFRSYM    DATA     BYTE      ADC_CONTR
      000000BBH   SFRSYM    DATA     BYTE      P_SW3
      000000BAH   SFRSYM    DATA     BYTE      P_SW2
      000000B8H   SFRSYM    DATA     BYTE      IP
      000000B7H   SFRSYM    DATA     BYTE      IPH
      000000B6H   SFRSYM    DATA     BYTE      IP2H
      000000B5H   SFRSYM    DATA     BYTE      IP2
      000000B0H   SFRSYM    DATA     BYTE      P3
      000000AFH   SFRSYM    DATA     BYTE      IE2
L251 LINKER/LOCATER V4.66.93.0                                                        12/22/2024  10:45:14  PAGE 38


      000000ACH   SFRSYM    DATA     BYTE      S3CON
      000000ABH   SFRSYM    DATA     BYTE      WKTCH
      000000A8H   SFRSYM    DATA     BYTE      IE
      000000A2H   SFRSYM    DATA     BYTE      P_SW1
      000000A0H   SFRSYM    DATA     BYTE      P2
      0000009DH   SFRSYM    DATA     BYTE      IRCBAND
      0000009AH   SFRSYM    DATA     BYTE      S2CON
      00000098H   SFRSYM    DATA     BYTE      SCON
      00000097H   SFRSYM    DATA     BYTE      AUXR2
      00000090H   SFRSYM    DATA     BYTE      P1
      0000008FH   SFRSYM    DATA     BYTE      INTCLKO
      0000008EH   SFRSYM    DATA     BYTE      AUXR
      00000089H   SFRSYM    DATA     BYTE      TMOD
      00000088H   SFRSYM    DATA     BYTE      TCON
      00000087H   SFRSYM    DATA     BYTE      PCON
      00000080H   SFRSYM    DATA     BYTE      P0

      00FF3258H   BLOCK     CODE     ---       LVL=0
      REG=0       REGSYM    ---      ---       dat
      DR4         REGSYM    ---      DWORD     length
      FFFFFFFBH   STKSYM    ---      DWORD     add
      0001075CH   SYMBOL    XDATA    DWORD     i
      00FF3258H   LINE      CODE     ---       #65
      00FF3258H   LINE      CODE     ---       #68
      00FF325BH   LINE      CODE     ---       #71
      00FF3271H   LINE      CODE     ---       #72
      00FF3274H   LINE      CODE     ---       #74
      00FF3277H   LINE      CODE     ---       #76
      00FF3283H   LINE      CODE     ---       #77
      00FF328FH   LINE      CODE     ---       #78
      00FF3299H   LINE      CODE     ---       #80
      00FF329CH   LINE      CODE     ---       #81
      00FF329FH   LINE      CODE     ---       #82
      00FF32A0H   LINE      CODE     ---       #83
      00FF32A1H   LINE      CODE     ---       #84
      00FF32A2H   LINE      CODE     ---       #85
      00FF32A3H   LINE      CODE     ---       #87
      00FF32A3H   LINE      CODE     ---       #88
      00FF32A7H   LINE      CODE     ---       #89
      00FF32A7H   LINE      CODE     ---       #91
      00FF32AAH   LINE      CODE     ---       #93
      00FF32B8H   LINE      CODE     ---       #94
      00FF32BBH   LINE      CODE     ---       #96
      00FF32D3H   LINE      CODE     ---       #97
      00FF32EBH   LINE      CODE     ---       #98
      00FF3301H   LINE      CODE     ---       #99
      00FF3314H   LINE      CODE     ---       #101
      00FF3317H   LINE      CODE     ---       #102
      00FF331AH   LINE      CODE     ---       #103
      00FF331BH   LINE      CODE     ---       #104
      00FF331CH   LINE      CODE     ---       #105
      00FF331DH   LINE      CODE     ---       #106
      00FF331EH   LINE      CODE     ---       #108
      00FF331EH   LINE      CODE     ---       #109
      00FF3322H   LINE      CODE     ---       #110
      00FF3346H   LINE      CODE     ---       #112
      00FF3355H   LINE      CODE     ---       #114
      00FF336AH   LINE      CODE     ---       #115
      ---         BLOCKEND  ---      ---       LVL=0

      00FF47B2H   BLOCK     CODE     ---       LVL=0
      REG=0       REGSYM    ---      ---       dat
      DR4         REGSYM    ---      DWORD     add
      FFFFFFFBH   STKSYM    ---      DWORD     out_buff_len
      00FF47B2H   LINE      CODE     ---       #117
L251 LINKER/LOCATER V4.66.93.0                                                        12/22/2024  10:45:14  PAGE 39


      00FF47B2H   LINE      CODE     ---       #118
      00FF47C1H   LINE      CODE     ---       #119
      ---         BLOCKEND  ---      ---       LVL=0

      00FF20BDH   BLOCK     CODE     ---       LVL=0
      00FF20BDH   LINE      CODE     ---       #122
      00FF20BDH   LINE      CODE     ---       #123
      00FF20D4H   LINE      CODE     ---       #125
      00FF20DBH   LINE      CODE     ---       #126
      00FF20E1H   LINE      CODE     ---       #127
      00FF20E3H   LINE      CODE     ---       #128
      00FF20E8H   LINE      CODE     ---       #129
      00FF20E8H   LINE      CODE     ---       #130
      00FF20EFH   LINE      CODE     ---       #131
      00FF20F5H   LINE      CODE     ---       #132
      00FF20F7H   LINE      CODE     ---       #133
      00FF20FCH   LINE      CODE     ---       #134
      00FF20FCH   LINE      CODE     ---       #135
      00FF2103H   LINE      CODE     ---       #136
      00FF2109H   LINE      CODE     ---       #138
      00FF210BH   LINE      CODE     ---       #139
      00FF2110H   LINE      CODE     ---       #140
      00FF2110H   LINE      CODE     ---       #141
      00FF2117H   LINE      CODE     ---       #142
      00FF211DH   LINE      CODE     ---       #143
      00FF211FH   LINE      CODE     ---       #144
      00FF2124H   LINE      CODE     ---       #145
      00FF2124H   LINE      CODE     ---       #146
      00FF212BH   LINE      CODE     ---       #147
      00FF2131H   LINE      CODE     ---       #148
      00FF2133H   LINE      CODE     ---       #149
      00FF2138H   LINE      CODE     ---       #150
      00FF2138H   LINE      CODE     ---       #151
      00FF213FH   LINE      CODE     ---       #152
      00FF2145H   LINE      CODE     ---       #153
      00FF2147H   LINE      CODE     ---       #154
      00FF214CH   LINE      CODE     ---       #155
      00FF214CH   LINE      CODE     ---       #156
      00FF2155H   LINE      CODE     ---       #157
      00FF215DH   LINE      CODE     ---       #158
      00FF215FH   LINE      CODE     ---       #159
      00FF2165H   LINE      CODE     ---       #160
      00FF2165H   LINE      CODE     ---       #162
      00FF217DH   LINE      CODE     ---       #163
      00FF218FH   LINE      CODE     ---       #164
      00FF21B8H   LINE      CODE     ---       #165
      00FF21B8H   LINE      CODE     ---       #166
      00FF21CAH   LINE      CODE     ---       #167
      00FF21F3H   LINE      CODE     ---       #168
      00FF21F3H   LINE      CODE     ---       #169
      00FF2205H   LINE      CODE     ---       #170
      00FF222EH   LINE      CODE     ---       #171
      00FF222EH   LINE      CODE     ---       #172
      00FF2235H   LINE      CODE     ---       #175
      00FF2237H   LINE      CODE     ---       #176
      00FF223FH   LINE      CODE     ---       #177
      00FF2246H   LINE      CODE     ---       #178
      00FF2246H   LINE      CODE     ---       #180
      00FF2258H   LINE      CODE     ---       #181
      00FF2264H   LINE      CODE     ---       #182
      00FF2279H   LINE      CODE     ---       #183
      00FF2285H   LINE      CODE     ---       #184
      00FF2287H   LINE      CODE     ---       #185
      00FF228FH   LINE      CODE     ---       #186
      00FF22A2H   LINE      CODE     ---       #187
L251 LINKER/LOCATER V4.66.93.0                                                        12/22/2024  10:45:14  PAGE 40


      00FF22A2H   LINE      CODE     ---       #189
      00FF22B4H   LINE      CODE     ---       #191
      00FF22BCH   LINE      CODE     ---       #193
      00FF22C3H   LINE      CODE     ---       #194
      00FF22C9H   LINE      CODE     ---       #195
      00FF22CBH   LINE      CODE     ---       #196
      00FF22D0H   LINE      CODE     ---       #197
      00FF22D0H   LINE      CODE     ---       #199
      00FF22D7H   LINE      CODE     ---       #200
      00FF22DDH   LINE      CODE     ---       #201
      00FF22DFH   LINE      CODE     ---       #202
      00FF22E4H   LINE      CODE     ---       #203
      00FF22E4H   LINE      CODE     ---       #204
      00FF22E9H   LINE      CODE     ---       #205
      00FF22F5H   LINE      CODE     ---       #206
      00FF22FEH   LINE      CODE     ---       #207
      00FF2303H   LINE      CODE     ---       #208
      00FF2305H   LINE      CODE     ---       #209
      00FF230CH   LINE      CODE     ---       #210
      00FF230CH   LINE      CODE     ---       #212
      00FF2313H   LINE      CODE     ---       #213
      00FF2319H   LINE      CODE     ---       #214
      00FF231BH   LINE      CODE     ---       #215
      00FF2320H   LINE      CODE     ---       #216
      00FF2320H   LINE      CODE     ---       #217
      00FF2332H   LINE      CODE     ---       #218
      00FF2344H   LINE      CODE     ---       #220
      00FF2352H   LINE      CODE     ---       #221
      00FF235AH   LINE      CODE     ---       #223
      00FF2361H   LINE      CODE     ---       #224
      00FF2367H   LINE      CODE     ---       #225
      00FF2369H   LINE      CODE     ---       #226
      00FF236EH   LINE      CODE     ---       #227
      00FF236EH   LINE      CODE     ---       #229
      00FF237CH   LINE      CODE     ---       #231
      00FF2383H   LINE      CODE     ---       #232
      00FF2389H   LINE      CODE     ---       #233
      00FF238BH   LINE      CODE     ---       #234
      00FF2390H   LINE      CODE     ---       #235
      00FF2390H   LINE      CODE     ---       #237
      00FF2397H   LINE      CODE     ---       #241
      00FF239CH   LINE      CODE     ---       #243
      00FF239EH   LINE      CODE     ---       #244
      00FF23A3H   LINE      CODE     ---       #245
      00FF23A3H   LINE      CODE     ---       #247
      00FF23B5H   LINE      CODE     ---       #248
      00FF23BDH   LINE      CODE     ---       #249
      00FF23BDH   LINE      CODE     ---       #251
      00FF23CFH   LINE      CODE     ---       #252
      00FF23D7H   LINE      CODE     ---       #253
      00FF23D7H   LINE      CODE     ---       #255
      00FF23EFH   LINE      CODE     ---       #256
      00FF2406H   LINE      CODE     ---       #257
      00FF240FH   LINE      CODE     ---       #258
      00FF2415H   LINE      CODE     ---       #259
      00FF2415H   LINE      CODE     ---       #260
      00FF2429H   LINE      CODE     ---       #261
      00FF2446H   LINE      CODE     ---       #262
      00FF2454H   LINE      CODE     ---       #263
      00FF2466H   LINE      CODE     ---       #264
      00FF2476H   LINE      CODE     ---       #265
      00FF2485H   LINE      CODE     ---       #266
      00FF2497H   LINE      CODE     ---       #267
      00FF24B2H   LINE      CODE     ---       #268
      00FF24B2H   LINE      CODE     ---       #271
L251 LINKER/LOCATER V4.66.93.0                                                        12/22/2024  10:45:14  PAGE 41


      00FF24C4H   LINE      CODE     ---       #272
      00FF24CCH   LINE      CODE     ---       #273
      00FF24CCH   LINE      CODE     ---       #275
      00FF24DEH   LINE      CODE     ---       #276
      00FF24EBH   LINE      CODE     ---       #277
      00FF24F1H   LINE      CODE     ---       #278
      00FF24F1H   LINE      CODE     ---       #280
      00FF2503H   LINE      CODE     ---       #281
      00FF250BH   LINE      CODE     ---       #282
      00FF250BH   LINE      CODE     ---       #284
      00FF2514H   LINE      CODE     ---       #285
      00FF2522H   LINE      CODE     ---       #286
      00FF2522H   LINE      CODE     ---       #287
      00FF2527H   LINE      CODE     ---       #288
      00FF252CH   LINE      CODE     ---       #289
      00FF252EH   LINE      CODE     ---       #290
      00FF252EH   LINE      CODE     ---       #291
      00FF2534H   LINE      CODE     ---       #292
      00FF2536H   LINE      CODE     ---       #293
      00FF2536H   LINE      CODE     ---       #294
      00FF253CH   LINE      CODE     ---       #295
      00FF253EH   LINE      CODE     ---       #296
      00FF253EH   LINE      CODE     ---       #297
      00FF253EH   LINE      CODE     ---       #298
      00FF253EH   LINE      CODE     ---       #299
      00FF253EH   LINE      CODE     ---       #300
      00FF2543H   LINE      CODE     ---       #301
      00FF2548H   LINE      CODE     ---       #302
      00FF2548H   LINE      CODE     ---       #304
      00FF254FH   LINE      CODE     ---       #305
      00FF2555H   LINE      CODE     ---       #306
      00FF2557H   LINE      CODE     ---       #307
      00FF255CH   LINE      CODE     ---       #308
      00FF255CH   LINE      CODE     ---       #310
      00FF2566H   LINE      CODE     ---       #311
      00FF256BH   LINE      CODE     ---       #312
      00FF256BH   LINE      CODE     ---       #314
      00FF258AH   LINE      CODE     ---       #315
      00FF25A9H   LINE      CODE     ---       #316
      00FF25A9H   LINE      CODE     ---       #317
      00FF25D0H   LINE      CODE     ---       #322
      ---         BLOCKEND  ---      ---       LVL=0

      00FF3B46H   BLOCK     CODE     ---       LVL=0
      00FF3B46H   LINE      CODE     ---       #324
      00FF3B46H   LINE      CODE     ---       #326
      00FF3B4EH   LINE      CODE     ---       #327
      00FF3B55H   LINE      CODE     ---       #328
      00FF3B5BH   LINE      CODE     ---       #329
      00FF3B5DH   LINE      CODE     ---       #330
      00FF3B62H   LINE      CODE     ---       #331
      00FF3B62H   LINE      CODE     ---       #332
      00FF3B69H   LINE      CODE     ---       #333
      00FF3B6FH   LINE      CODE     ---       #334
      00FF3B71H   LINE      CODE     ---       #335
      00FF3B76H   LINE      CODE     ---       #336
      00FF3B76H   LINE      CODE     ---       #337
      00FF3B7DH   LINE      CODE     ---       #338
      00FF3B83H   LINE      CODE     ---       #339
      00FF3B85H   LINE      CODE     ---       #340
      00FF3B8AH   LINE      CODE     ---       #341
      00FF3B8AH   LINE      CODE     ---       #343
      00FF3B91H   LINE      CODE     ---       #344
      00FF3B97H   LINE      CODE     ---       #345
      00FF3B99H   LINE      CODE     ---       #346
L251 LINKER/LOCATER V4.66.93.0                                                        12/22/2024  10:45:14  PAGE 42


      00FF3B9EH   LINE      CODE     ---       #347
      00FF3B9EH   LINE      CODE     ---       #348
      00FF3BA5H   LINE      CODE     ---       #349
      00FF3BABH   LINE      CODE     ---       #350
      00FF3BADH   LINE      CODE     ---       #351
      00FF3BB2H   LINE      CODE     ---       #352
      00FF3BB2H   LINE      CODE     ---       #353
      00FF3BB9H   LINE      CODE     ---       #354
      00FF3BBFH   LINE      CODE     ---       #355
      00FF3BC1H   LINE      CODE     ---       #356
      00FF3BC6H   LINE      CODE     ---       #357
      00FF3BC6H   LINE      CODE     ---       #358
      00FF3BCEH   LINE      CODE     ---       #359
      00FF3BE5H   LINE      CODE     ---       #360
      ---         BLOCKEND  ---      ---       LVL=0

      ---         MODULE    ---      ---       input
      00FF40FAH   PUBLIC    CODE     ---       receiveDshotDma?_
      00FF39E9H   PUBLIC    CODE     ---       transfercomplete?_
      00FF114EH   PUBLIC    CODE     ---       setInput?_
      00FF3676H   PUBLIC    CODE     ---       detectInput?_
      00FF414AH   PUBLIC    CODE     ---       resetInputCaptureTimer?_
      00FF10A2H   PUBLIC    CODE     ---       setInputPolarityRising?_
      00FF10D9H   PUBLIC    CODE     ---       enableHalfTransferInt?_
      000000DCH   PUBLIC    EDATA    BYTE      servoPwm
      000000DDH   PUBLIC    EDATA    BYTE      dshot
      000000DEH   PUBLIC    EDATA    BYTE      ic_timer_prescaler
      000000DFH   PUBLIC    EDATA    BYTE      buffersize
      000000E0H   PUBLIC    EDATA    WORD      smallestnumber
      000000E2H   PUBLIC    EDATA    WORD      average_signal_pulse
      000000E4H   PUBLIC    EDATA    BYTE      input_ready
      000000E5H   PUBLIC    EDATA    BYTE      inputSet
      000000E6H   PUBLIC    EDATA    INT       newinput
      000000E8H   PUBLIC    EDATA    INT       adjusted_input
      000000EAH   PUBLIC    EDATA    INT       input
      000000ECH   PUBLIC    EDATA    INT       input_override
      000000EEH   PUBLIC    EDATA    LONG      duty_cycle
      000000F2H   PUBLIC    EDATA    LONG      adjusted_duty_cycle
      000000F6H   PUBLIC    EDATA    LONG      last_duty_cycle
      000000FAH   PUBLIC    EDATA    BYTE      max_duty_cycle_change
      000000FBH   PUBLIC    EDATA    LONG      prop_brake_duty_cycle
      000000FFH   PUBLIC    EDATA    BYTE      brushed_direction_set
      00000100H   PUBLIC    EDATA    BYTE      return_to_center
      00000101H   PUBLIC    EDATA    WORD      zero_input_counter
      00000103H   PUBLIC    EDATA    INT       last_input
      000105ACH   PUBLIC    XDATA    ---       dma_buffer
      000000FFH   SFRSYM    DATA     BYTE      RSTCFG
      000000FDH   SFRSYM    DATA     BYTE      S4CON
      000000F8H   SFRSYM    DATA     BYTE      P7
      000000F4H   SFRSYM    DATA     BYTE      USBCON
      000000EFH   SFRSYM    DATA     BYTE      AUXINTIF
      000000EEH   SFRSYM    DATA     BYTE      IP3H
      000000E8H   SFRSYM    DATA     BYTE      P6
      000000E7H   SFRSYM    DATA     BYTE      CMPCR2
      000000E6H   SFRSYM    DATA     BYTE      CMPCR1
      000000DFH   SFRSYM    DATA     BYTE      IP3
      000000DEH   SFRSYM    DATA     BYTE      ADCCFG
      000000DDH   SFRSYM    DATA     BYTE      T4T3M
      000000D1H   SFRSYM    DATA     BYTE      PSW1
      000000D0H   SFRSYM    DATA     BYTE      PSW
      000000CEH   SFRSYM    DATA     BYTE      SPCTL
      000000CDH   SFRSYM    DATA     BYTE      SPSTAT
      000000C8H   SFRSYM    DATA     BYTE      P5
      000000C7H   SFRSYM    DATA     BYTE      IAP_CONTR
      000000C1H   SFRSYM    DATA     BYTE      WDT_CONTR
L251 LINKER/LOCATER V4.66.93.0                                                        12/22/2024  10:45:14  PAGE 43


      000000C0H   SFRSYM    DATA     BYTE      P4
      000000BFH   SFRSYM    DATA     BYTE      P_SW4
      000000BCH   SFRSYM    DATA     BYTE      ADC_CONTR
      000000BBH   SFRSYM    DATA     BYTE      P_SW3
      000000BAH   SFRSYM    DATA     BYTE      P_SW2
      000000B8H   SFRSYM    DATA     BYTE      IP
      000000B7H   SFRSYM    DATA     BYTE      IPH
      000000B6H   SFRSYM    DATA     BYTE      IP2H
      000000B5H   SFRSYM    DATA     BYTE      IP2
      000000B0H   SFRSYM    DATA     BYTE      P3
      000000AFH   SFRSYM    DATA     BYTE      IE2
      000000ACH   SFRSYM    DATA     BYTE      S3CON
      000000ABH   SFRSYM    DATA     BYTE      WKTCH
      000000A8H   SFRSYM    DATA     BYTE      IE
      000000A2H   SFRSYM    DATA     BYTE      P_SW1
      000000A0H.1 SFRSYM    DATA     BIT       P21
      000000A0H   SFRSYM    DATA     BYTE      P2
      0000009DH   SFRSYM    DATA     BYTE      IRCBAND
      0000009AH   SFRSYM    DATA     BYTE      S2CON
      00000098H   SFRSYM    DATA     BYTE      SCON
      00000097H   SFRSYM    DATA     BYTE      AUXR2
      00000090H   SFRSYM    DATA     BYTE      P1
      0000008FH   SFRSYM    DATA     BYTE      INTCLKO
      0000008EH   SFRSYM    DATA     BYTE      AUXR
      00000089H   SFRSYM    DATA     BYTE      TMOD
      00000088H   SFRSYM    DATA     BYTE      TCON
      00000087H   SFRSYM    DATA     BYTE      PCON
      00000080H   SFRSYM    DATA     BYTE      P0

      00FF40FAH   BLOCK     CODE     ---       LVL=0
      00FF40FAH   LINE      CODE     ---       #38
      00FF40FAH   LINE      CODE     ---       #41
      00FF4106H   LINE      CODE     ---       #42
      00FF4115H   LINE      CODE     ---       #43
      00FF4122H   LINE      CODE     ---       #44
      00FF412FH   LINE      CODE     ---       #46
      00FF413CH   LINE      CODE     ---       #48
      00FF4149H   LINE      CODE     ---       #49
      ---         BLOCKEND  ---      ---       LVL=0

      00FF39E9H   BLOCK     CODE     ---       LVL=0
      00FF39E9H   LINE      CODE     ---       #51
      00FF39E9H   LINE      CODE     ---       #53
      00FF39EFH   LINE      CODE     ---       #54
      00FF39F2H   LINE      CODE     ---       #55
      00FF39F5H   LINE      CODE     ---       #56
      00FF39F8H   LINE      CODE     ---       #57
      00FF39F8H   LINE      CODE     ---       #58
      00FF3A04H   LINE      CODE     ---       #76
      00FF3A0BH   LINE      CODE     ---       #77
      00FF3A0EH   LINE      CODE     ---       #78
      00FF3A14H   LINE      CODE     ---       #79
      00FF3A16H   LINE      CODE     ---       #80
      00FF3A1CH   LINE      CODE     ---       #81
      00FF3A1FH   LINE      CODE     ---       #82
      00FF3A1FH   LINE      CODE     ---       #83
      00FF3A22H   LINE      CODE     ---       #84
      00FF3A22H   LINE      CODE     ---       #86
      00FF3A28H   LINE      CODE     ---       #98
      00FF3A36H   LINE      CODE     ---       #100
      00FF3A40H   LINE      CODE     ---       #101
      00FF3A42H   LINE      CODE     ---       #102
      00FF3A48H   LINE      CODE     ---       #103
      00FF3A52H   LINE      CODE     ---       #104
      00FF3A63H   LINE      CODE     ---       #105
L251 LINKER/LOCATER V4.66.93.0                                                        12/22/2024  10:45:14  PAGE 44


      00FF3A68H   LINE      CODE     ---       #106
      00FF3A6AH   LINE      CODE     ---       #107
      00FF3A73H   LINE      CODE     ---       #108
      00FF3A73H   LINE      CODE     ---       #110
      00FF3A82H   LINE      CODE     ---       #111
      00FF3A85H   LINE      CODE     ---       #112
      00FF3A8BH   LINE      CODE     ---       #113
      00FF3A90H   LINE      CODE     ---       #114
      00FF3A90H   LINE      CODE     ---       #115
      00FF3A98H   LINE      CODE     ---       #116
      00FF3A98H   LINE      CODE     ---       #118
      00FF3A98H   LINE      CODE     ---       #120
      ---         BLOCKEND  ---      ---       LVL=0

      00FF3676H   BLOCK     CODE     ---       LVL=0
      WR2         REGSYM    ---      WORD      j
      DR4         REGSYM    ---      DWORD     lastnumber
      00FF3676H   LINE      CODE     ---       #122
      00FF3676H   LINE      CODE     ---       #124
      00FF3680H   LINE      CODE     ---       #125
      00FF3688H   LINE      CODE     ---       #126
      00FF368EH   LINE      CODE     ---       #127
      00FF3695H   LINE      CODE     ---       #128
      00FF36B4H   LINE      CODE     ---       #129
      00FF36D7H   LINE      CODE     ---       #130
      00FF36F8H   LINE      CODE     ---       #131
      00FF36F8H   LINE      CODE     ---       #132
      00FF371BH   LINE      CODE     ---       #133
      00FF371BH   LINE      CODE     ---       #134
      00FF3732H   LINE      CODE     ---       #135
      00FF373DH   LINE      CODE     ---       #136
      00FF374FH   LINE      CODE     ---       #138
      00FF374FH   LINE      CODE     ---       #140
      00FF374FH   LINE      CODE     ---       #141
      00FF3756H   LINE      CODE     ---       #142
      00FF3759H   LINE      CODE     ---       #143
      00FF3759H   LINE      CODE     ---       #145
      00FF3765H   LINE      CODE     ---       #147
      00FF3768H   LINE      CODE     ---       #148
      ---         BLOCKEND  ---      ---       LVL=0

      00FF114EH   BLOCK     CODE     ---       LVL=0
      00FF114EH   LINE      CODE     ---       #151
      00FF114EH   LINE      CODE     ---       #152
      00FF1157H   LINE      CODE     ---       #153
      00FF1160H   LINE      CODE     ---       #154
      00FF1169H   LINE      CODE     ---       #155
      00FF117BH   LINE      CODE     ---       #156
      00FF1185H   LINE      CODE     ---       #157
      00FF118BH   LINE      CODE     ---       #159
      00FF1191H   LINE      CODE     ---       #160
      00FF1197H   LINE      CODE     ---       #161
      00FF11A7H   LINE      CODE     ---       #162
      00FF11ACH   LINE      CODE     ---       #163
      00FF11B1H   LINE      CODE     ---       #164
      00FF11B1H   LINE      CODE     ---       #166
      00FF11B7H   LINE      CODE     ---       #167
      00FF11BCH   LINE      CODE     ---       #168
      00FF11EFH   LINE      CODE     ---       #169
      00FF11EFH   LINE      CODE     ---       #171
      00FF1203H   LINE      CODE     ---       #172
      00FF1210H   LINE      CODE     ---       #173
      00FF1216H   LINE      CODE     ---       #174
      00FF121CH   LINE      CODE     ---       #175
      00FF1222H   LINE      CODE     ---       #176
L251 LINKER/LOCATER V4.66.93.0                                                        12/22/2024  10:45:14  PAGE 45


      00FF122AH   LINE      CODE     ---       #177
      00FF122FH   LINE      CODE     ---       #178
      00FF1234H   LINE      CODE     ---       #179
      00FF1234H   LINE      CODE     ---       #181
      00FF123AH   LINE      CODE     ---       #182
      00FF123FH   LINE      CODE     ---       #183
      00FF1272H   LINE      CODE     ---       #184
      00FF1272H   LINE      CODE     ---       #186
      00FF129EH   LINE      CODE     ---       #187
      00FF12A4H   LINE      CODE     ---       #188
      00FF12ADH   LINE      CODE     ---       #189
      00FF12B2H   LINE      CODE     ---       #190
      00FF12B8H   LINE      CODE     ---       #191
      00FF12B8H   LINE      CODE     ---       #193
      00FF12BBH   LINE      CODE     ---       #194
      00FF12D0H   LINE      CODE     ---       #195
      00FF12DAH   LINE      CODE     ---       #196
      00FF12F4H   LINE      CODE     ---       #197
      00FF1304H   LINE      CODE     ---       #198
      00FF130AH   LINE      CODE     ---       #199
      00FF1310H   LINE      CODE     ---       #200
      00FF1320H   LINE      CODE     ---       #201
      00FF1325H   LINE      CODE     ---       #202
      00FF1327H   LINE      CODE     ---       #203
      00FF132FH   LINE      CODE     ---       #204
      00FF132FH   LINE      CODE     ---       #205
      00FF132FH   LINE      CODE     ---       #206
      00FF1362H   LINE      CODE     ---       #207
      00FF1362H   LINE      CODE     ---       #208
      00FF1379H   LINE      CODE     ---       #209
      00FF1386H   LINE      CODE     ---       #210
      00FF13A0H   LINE      CODE     ---       #211
      00FF13A6H   LINE      CODE     ---       #212
      00FF13ACH   LINE      CODE     ---       #213
      00FF13B4H   LINE      CODE     ---       #214
      00FF13C4H   LINE      CODE     ---       #215
      00FF13C9H   LINE      CODE     ---       #216
      00FF13CBH   LINE      CODE     ---       #217
      00FF13D3H   LINE      CODE     ---       #218
      00FF13D3H   LINE      CODE     ---       #219
      00FF13D3H   LINE      CODE     ---       #220
      00FF1406H   LINE      CODE     ---       #221
      00FF1406H   LINE      CODE     ---       #223
      00FF142CH   LINE      CODE     ---       #224
      00FF1432H   LINE      CODE     ---       #225
      00FF1437H   LINE      CODE     ---       #226
      00FF1437H   LINE      CODE     ---       #228
      00FF1437H   LINE      CODE     ---       #230
      00FF1440H   LINE      CODE     ---       #231
      00FF144AH   LINE      CODE     ---       #233
      00FF1454H   LINE      CODE     ---       #234
      00FF146EH   LINE      CODE     ---       #235
      00FF147EH   LINE      CODE     ---       #236
      00FF1484H   LINE      CODE     ---       #237
      00FF148AH   LINE      CODE     ---       #238
      00FF149AH   LINE      CODE     ---       #239
      00FF149FH   LINE      CODE     ---       #240
      00FF14A1H   LINE      CODE     ---       #241
      00FF14A7H   LINE      CODE     ---       #242
      00FF14A7H   LINE      CODE     ---       #243
      00FF14A7H   LINE      CODE     ---       #244
      00FF14B5H   LINE      CODE     ---       #245
      00FF14B5H   LINE      CODE     ---       #246
      00FF14C9H   LINE      CODE     ---       #247
      00FF14D6H   LINE      CODE     ---       #248
L251 LINKER/LOCATER V4.66.93.0                                                        12/22/2024  10:45:14  PAGE 46


      00FF14F0H   LINE      CODE     ---       #249
      00FF14F6H   LINE      CODE     ---       #250
      00FF14FCH   LINE      CODE     ---       #251
      00FF1504H   LINE      CODE     ---       #252
      00FF1514H   LINE      CODE     ---       #253
      00FF1519H   LINE      CODE     ---       #254
      00FF151BH   LINE      CODE     ---       #255
      00FF1521H   LINE      CODE     ---       #256
      00FF1521H   LINE      CODE     ---       #257
      00FF1521H   LINE      CODE     ---       #258
      00FF152FH   LINE      CODE     ---       #259
      00FF152FH   LINE      CODE     ---       #260
      00FF1539H   LINE      CODE     ---       #261
      00FF153FH   LINE      CODE     ---       #262
      00FF1544H   LINE      CODE     ---       #263
      00FF1544H   LINE      CODE     ---       #265
      00FF1546H   LINE      CODE     ---       #266
      00FF154EH   LINE      CODE     ---       #267
      00FF154EH   LINE      CODE     ---       #269
      00FF155EH   LINE      CODE     ---       #270
      00FF1561H   LINE      CODE     ---       #271
      00FF1571H   LINE      CODE     ---       #272
      00FF1577H   LINE      CODE     ---       #273
      00FF157DH   LINE      CODE     ---       #274
      00FF1580H   LINE      CODE     ---       #276
      00FF1589H   LINE      CODE     ---       #277
      00FF1593H   LINE      CODE     ---       #278
      00FF1599H   LINE      CODE     ---       #279
      00FF1599H   LINE      CODE     ---       #280
      00FF15B0H   LINE      CODE     ---       #281
      00FF15E4H   LINE      CODE     ---       #282
      00FF15E4H   LINE      CODE     ---       #283
      00FF15F4H   LINE      CODE     ---       #284
      00FF162AH   LINE      CODE     ---       #285
      00FF162DH   LINE      CODE     ---       #287
      00FF1636H   LINE      CODE     ---       #288
      00FF163FH   LINE      CODE     ---       #289
      00FF168DH   LINE      CODE     ---       #292
      00FF1697H   LINE      CODE     ---       #293
      00FF169DH   LINE      CODE     ---       #294
      00FF16A9H   LINE      CODE     ---       #295
      00FF16AFH   LINE      CODE     ---       #296
      00FF16B1H   LINE      CODE     ---       #297
      00FF16B9H   LINE      CODE     ---       #298
      00FF16C3H   LINE      CODE     ---       #299
      00FF16CBH   LINE      CODE     ---       #300
      00FF16CBH   LINE      CODE     ---       #301
      00FF16D5H   LINE      CODE     ---       #302
      00FF16DDH   LINE      CODE     ---       #303
      00FF16DDH   LINE      CODE     ---       #305
      00FF16DFH   LINE      CODE     ---       #307
      00FF16E7H   LINE      CODE     ---       #308
      00FF16F1H   LINE      CODE     ---       #309
      00FF16F9H   LINE      CODE     ---       #310
      00FF16F9H   LINE      CODE     ---       #311
      00FF1703H   LINE      CODE     ---       #312
      00FF170BH   LINE      CODE     ---       #313
      00FF170BH   LINE      CODE     ---       #315
      00FF170DH   LINE      CODE     ---       #316
      00FF1715H   LINE      CODE     ---       #317
      00FF1715H   LINE      CODE     ---       #318
      00FF1715H   LINE      CODE     ---       #319
      00FF1715H   LINE      CODE     ---       #321
      00FF171EH   LINE      CODE     ---       #322
      00FF173DH   LINE      CODE     ---       #323
L251 LINKER/LOCATER V4.66.93.0                                                        12/22/2024  10:45:14  PAGE 47


      00FF1743H   LINE      CODE     ---       #324
      00FF1746H   LINE      CODE     ---       #325
      00FF174CH   LINE      CODE     ---       #326
      00FF174FH   LINE      CODE     ---       #327
      00FF174FH   LINE      CODE     ---       #328
      00FF1755H   LINE      CODE     ---       #329
      00FF175DH   LINE      CODE     ---       #330
      00FF175DH   LINE      CODE     ---       #332
      00FF1763H   LINE      CODE     ---       #333
      00FF1790H   LINE      CODE     ---       #334
      00FF1792H   LINE      CODE     ---       #335
      00FF17BBH   LINE      CODE     ---       #336
      00FF17BBH   LINE      CODE     ---       #338
      00FF17C1H   LINE      CODE     ---       #339
      00FF17C6H   LINE      CODE     ---       #340
      00FF17C6H   LINE      CODE     ---       #343
      00FF17DCH   LINE      CODE     ---       #344
      00FF17E2H   LINE      CODE     ---       #345
      00FF17F7H   LINE      CODE     ---       #346
      00FF17F7H   LINE      CODE     ---       #347
      00FF17FAH   LINE      CODE     ---       #348
      00FF17FCH   LINE      CODE     ---       #349
      00FF17FCH   LINE      CODE     ---       #350
      00FF17FFH   LINE      CODE     ---       #351
      00FF1801H   LINE      CODE     ---       #352
      00FF1801H   LINE      CODE     ---       #353
      00FF1804H   LINE      CODE     ---       #354
      00FF1806H   LINE      CODE     ---       #355
      00FF1806H   LINE      CODE     ---       #356
      00FF1809H   LINE      CODE     ---       #357
      00FF180BH   LINE      CODE     ---       #358
      00FF180BH   LINE      CODE     ---       #359
      00FF180EH   LINE      CODE     ---       #360
      00FF180EH   LINE      CODE     ---       #361
      00FF180EH   LINE      CODE     ---       #362
      00FF1813H   LINE      CODE     ---       #363
      00FF1813H   LINE      CODE     ---       #365
      00FF1819H   LINE      CODE     ---       #366
      00FF181FH   LINE      CODE     ---       #367
      00FF1825H   LINE      CODE     ---       #368
      00FF182BH   LINE      CODE     ---       #369
      00FF1831H   LINE      CODE     ---       #370
      00FF1837H   LINE      CODE     ---       #371
      00FF183AH   LINE      CODE     ---       #372
      00FF183CH   LINE      CODE     ---       #373
      00FF1842H   LINE      CODE     ---       #374
      00FF1845H   LINE      CODE     ---       #375
      00FF1845H   LINE      CODE     ---       #377
      00FF1845H   LINE      CODE     ---       #378
      00FF1857H   LINE      CODE     ---       #380
      00FF186EH   LINE      CODE     ---       #381
      00FF187EH   LINE      CODE     ---       #382
      00FF1881H   LINE      CODE     ---       #383
      00FF1884H   LINE      CODE     ---       #384
      00FF1887H   LINE      CODE     ---       #385
      00FF1887H   LINE      CODE     ---       #387
      00FF188AH   LINE      CODE     ---       #389
      00FF1890H   LINE      CODE     ---       #390
      00FF1896H   LINE      CODE     ---       #391
      00FF189CH   LINE      CODE     ---       #392
      00FF18A1H   LINE      CODE     ---       #393
      00FF18A7H   LINE      CODE     ---       #394
      00FF18ADH   LINE      CODE     ---       #395
      00FF18BFH   LINE      CODE     ---       #396
      00FF18C2H   LINE      CODE     ---       #397
L251 LINKER/LOCATER V4.66.93.0                                                        12/22/2024  10:45:14  PAGE 48


      00FF18C8H   LINE      CODE     ---       #398
      00FF18CAH   LINE      CODE     ---       #400
      00FF18CDH   LINE      CODE     ---       #401
      00FF18CDH   LINE      CODE     ---       #402
      00FF18D3H   LINE      CODE     ---       #403
      00FF18D3H   LINE      CODE     ---       #405
      00FF18E7H   LINE      CODE     ---       #406
      00FF18F1H   LINE      CODE     ---       #407
      00FF18FDH   LINE      CODE     ---       #408
      00FF18FDH   LINE      CODE     ---       #409
      00FF1909H   LINE      CODE     ---       #410
      00FF1913H   LINE      CODE     ---       #411
      00FF191FH   LINE      CODE     ---       #412
      00FF191FH   LINE      CODE     ---       #413
      00FF192BH   LINE      CODE     ---       #414
      00FF1935H   LINE      CODE     ---       #415
      00FF1941H   LINE      CODE     ---       #416
      00FF1941H   LINE      CODE     ---       #418
      00FF1948H   LINE      CODE     ---       #419
      00FF194EH   LINE      CODE     ---       #420
      00FF194EH   LINE      CODE     ---       #421
      00FF1954H   LINE      CODE     ---       #422
      00FF1954H   LINE      CODE     ---       #423
      00FF1954H   LINE      CODE     ---       #424
      00FF195DH   LINE      CODE     ---       #425
      00FF197CH   LINE      CODE     ---       #426
      00FF1988H   LINE      CODE     ---       #427
      00FF1990H   LINE      CODE     ---       #428
      00FF1990H   LINE      CODE     ---       #429
      00FF199CH   LINE      CODE     ---       #430
      00FF19A4H   LINE      CODE     ---       #431
      00FF19A4H   LINE      CODE     ---       #434
      00FF19B0H   LINE      CODE     ---       #435
      00FF19B8H   LINE      CODE     ---       #436
      00FF19B8H   LINE      CODE     ---       #438
      00FF19BEH   LINE      CODE     ---       #439
      00FF19CCH   LINE      CODE     ---       #440
      00FF19D6H   LINE      CODE     ---       #441
      00FF19D6H   LINE      CODE     ---       #444
      00FF19EBH   LINE      CODE     ---       #445
      00FF1A02H   LINE      CODE     ---       #446
      00FF1A02H   LINE      CODE     ---       #448
      00FF1A02H   LINE      CODE     ---       #449
      ---         BLOCKEND  ---      ---       LVL=0

      00FF414AH   BLOCK     CODE     ---       LVL=0
      00FF414AH   LINE      CODE     ---       #451
      00FF414AH   LINE      CODE     ---       #452
      00FF4156H   LINE      CODE     ---       #453
      00FF4162H   LINE      CODE     ---       #454
      00FF416FH   LINE      CODE     ---       #455
      00FF417CH   LINE      CODE     ---       #457
      00FF4189H   LINE      CODE     ---       #459
      00FF4196H   LINE      CODE     ---       #460
      ---         BLOCKEND  ---      ---       LVL=0

      00FF10A2H   BLOCK     CODE     ---       LVL=0
      00FF10A2H   LINE      CODE     ---       #466
      00FF10A2H   LINE      CODE     ---       #468
      ---         BLOCKEND  ---      ---       LVL=0

      00FF10D9H   BLOCK     CODE     ---       LVL=0
      00FF10D9H   LINE      CODE     ---       #478
      00FF10D9H   LINE      CODE     ---       #480
      ---         BLOCKEND  ---      ---       LVL=0
L251 LINKER/LOCATER V4.66.93.0                                                        12/22/2024  10:45:14  PAGE 49



      ---         MODULE    ---      ---       peripherals
      00FF4480H   PUBLIC    CODE     ---       SET_PRESCALER_PWM?_
      00FF45A2H   PUBLIC    CODE     ---       SET_AUTO_RELOAD_PWM?_
      00FF41E2H   PUBLIC    CODE     ---       SET_DUTY_CYCLE_ALL?_
      00FF45BFH   PUBLIC    CODE     ---       setPWMCompare1?_
      00FF45DCH   PUBLIC    CODE     ---       setPWMCompare2?_
      00FF45F9H   PUBLIC    CODE     ---       setPWMCompare3?_
      00FF47E1H   PUBLIC    CODE     ---       generatePwmTimerEvent?_
      00FF4566H   PUBLIC    CODE     ---       initCorePeripherals?_
      00FF4616H   PUBLIC    CODE     ---       initAfterJump?_
      00FF3F93H   PUBLIC    CODE     ---       configSystemClock?_
      00FF312BH   PUBLIC    CODE     ---       GPIO_Init?_
      00FF3477H   PUBLIC    CODE     ---       CMP_Init?_
      00FF47C2H   PUBLIC    CODE     ---       IWDG_Init?_
      00FF2FF5H   PUBLIC    CODE     ---       PWMA_Init?_
      00FF44AAH   PUBLIC    CODE     ---       TMR0_Init?_
      00FF4545H   PUBLIC    CODE     ---       TMR1_Init?_
      00FF466CH   PUBLIC    CODE     ---       TMR3_Init?_
      00FF4633H   PUBLIC    CODE     ---       TMR4_Init?_
      00FF3EC8H   PUBLIC    CODE     ---       TMR11_Init?_
      00FF392DH   PUBLIC    CODE     ---       UN_PWMB_Init?_
      000000FFH   SFRSYM    DATA     BYTE      RSTCFG
      000000FDH   SFRSYM    DATA     BYTE      S4CON
      000000F8H   SFRSYM    DATA     BYTE      P7
      000000F5H   SFRSYM    DATA     BYTE      IAP_TPS
      000000F4H   SFRSYM    DATA     BYTE      USBCON
      000000EFH   SFRSYM    DATA     BYTE      AUXINTIF
      000000EEH   SFRSYM    DATA     BYTE      IP3H
      000000EAH   SFRSYM    DATA     BYTE      CKCON
      000000E9H   SFRSYM    DATA     BYTE      WTST
      000000E8H   SFRSYM    DATA     BYTE      P6
      000000E7H.6 SFRSYM    DATA     BIT       DISFLT
      000000E7H   SFRSYM    DATA     BYTE      CMPCR2
      000000E6H.1 SFRSYM    DATA     BIT       CMPOE
      000000E6H.4 SFRSYM    DATA     BIT       NIE
      000000E6H.5 SFRSYM    DATA     BIT       PIE
      000000E6H.7 SFRSYM    DATA     BIT       CMPEN
      000000E6H   SFRSYM    DATA     BYTE      CMPCR1
      000000DFH   SFRSYM    DATA     BYTE      IP3
      000000DEH   SFRSYM    DATA     BYTE      ADCCFG
      000000DDH   SFRSYM    DATA     BYTE      T4T3M
      000000DCH   SFRSYM    DATA     BYTE      USBCLK
      000000D5H   SFRSYM    DATA     BYTE      T3L
      000000D4H   SFRSYM    DATA     BYTE      T3H
      000000D3H   SFRSYM    DATA     BYTE      T4L
      000000D2H   SFRSYM    DATA     BYTE      T4H
      000000D1H   SFRSYM    DATA     BYTE      PSW1
      000000D0H   SFRSYM    DATA     BYTE      PSW
      000000CEH   SFRSYM    DATA     BYTE      SPCTL
      000000CDH   SFRSYM    DATA     BYTE      SPSTAT
      000000CAH   SFRSYM    DATA     BYTE      P5M0
      000000C9H   SFRSYM    DATA     BYTE      P5M1
      000000C8H   SFRSYM    DATA     BYTE      P5
      000000C7H   SFRSYM    DATA     BYTE      IAP_CONTR
      000000C1H.3 SFRSYM    DATA     BIT       IDL_WDT
      000000C1H.4 SFRSYM    DATA     BIT       CLR_WDT
      000000C1H.5 SFRSYM    DATA     BIT       EN_WDT
      000000C1H   SFRSYM    DATA     BYTE      WDT_CONTR
      000000C0H   SFRSYM    DATA     BYTE      P4
      000000BFH   SFRSYM    DATA     BYTE      P_SW4
      000000BCH   SFRSYM    DATA     BYTE      ADC_CONTR
      000000BBH   SFRSYM    DATA     BYTE      P_SW3
      000000BAH.3 SFRSYM    DATA     BIT       CMPO_S
      000000BAH   SFRSYM    DATA     BYTE      P_SW2
L251 LINKER/LOCATER V4.66.93.0                                                        12/22/2024  10:45:14  PAGE 50


      000000B8H.1 SFRSYM    DATA     BIT       PT0
      000000B8H   SFRSYM    DATA     BYTE      IP
      000000B7H.1 SFRSYM    DATA     BIT       PT0H
      000000B7H   SFRSYM    DATA     BYTE      IPH
      000000B6H.3 SFRSYM    DATA     BIT       PPWMBH
      000000B6H   SFRSYM    DATA     BYTE      IP2H
      000000B5H.3 SFRSYM    DATA     BIT       PPWMB
      000000B5H   SFRSYM    DATA     BYTE      IP2
      000000B4H   SFRSYM    DATA     BYTE      P4M0
      000000B3H   SFRSYM    DATA     BYTE      P4M1
      000000B0H   SFRSYM    DATA     BYTE      P3
      000000AFH   SFRSYM    DATA     BYTE      IE2
      000000ACH   SFRSYM    DATA     BYTE      S3CON
      000000ABH   SFRSYM    DATA     BYTE      WKTCH
      000000A8H.1 SFRSYM    DATA     BIT       ET0
      000000A8H.7 SFRSYM    DATA     BIT       EA
      000000A8H   SFRSYM    DATA     BYTE      IE
      000000A2H   SFRSYM    DATA     BYTE      P_SW1
      000000A0H   SFRSYM    DATA     BYTE      P2
      0000009DH   SFRSYM    DATA     BYTE      IRCBAND
      0000009AH   SFRSYM    DATA     BYTE      S2CON
      00000098H   SFRSYM    DATA     BYTE      SCON
      00000097H   SFRSYM    DATA     BYTE      AUXR2
      00000096H   SFRSYM    DATA     BYTE      P2M0
      00000095H   SFRSYM    DATA     BYTE      P2M1
      00000094H   SFRSYM    DATA     BYTE      P0M0
      00000093H   SFRSYM    DATA     BYTE      P0M1
      00000090H   SFRSYM    DATA     BYTE      P1
      0000008FH   SFRSYM    DATA     BYTE      INTCLKO
      0000008EH   SFRSYM    DATA     BYTE      AUXR
      0000008DH   SFRSYM    DATA     BYTE      TH1
      0000008CH   SFRSYM    DATA     BYTE      TH0
      0000008BH   SFRSYM    DATA     BYTE      TL1
      0000008AH   SFRSYM    DATA     BYTE      TL0
      00000089H   SFRSYM    DATA     BYTE      TMOD
      00000088H.4 SFRSYM    DATA     BIT       TR0
      00000088H.5 SFRSYM    DATA     BIT       TF0
      00000088H.6 SFRSYM    DATA     BIT       TR1
      00000088H.7 SFRSYM    DATA     BIT       TF1
      00000088H   SFRSYM    DATA     BYTE      TCON
      00000087H   SFRSYM    DATA     BYTE      PCON
      00000080H   SFRSYM    DATA     BYTE      P0

      00FF4566H   BLOCK     CODE     ---       LVL=0
      00FF4566H   LINE      CODE     ---       #10
      00FF4566H   LINE      CODE     ---       #13
      00FF4569H   LINE      CODE     ---       #15
      00FF456CH   LINE      CODE     ---       #16
      00FF456FH   LINE      CODE     ---       #18
      00FF4572H   LINE      CODE     ---       #19
      00FF4575H   LINE      CODE     ---       #20
      00FF4578H   LINE      CODE     ---       #21
      00FF457BH   LINE      CODE     ---       #22
      00FF457EH   LINE      CODE     ---       #23
      00FF4581H   LINE      CODE     ---       #24
      00FF4584H   LINE      CODE     ---       #29
      ---         BLOCKEND  ---      ---       LVL=0

      00FF4616H   BLOCK     CODE     ---       LVL=0
      00FF4616H   LINE      CODE     ---       #31
      00FF4616H   LINE      CODE     ---       #32
      00FF4619H   LINE      CODE     ---       #33
      00FF461CH   LINE      CODE     ---       #34
      00FF461FH   LINE      CODE     ---       #36
      00FF4622H   LINE      CODE     ---       #37
L251 LINKER/LOCATER V4.66.93.0                                                        12/22/2024  10:45:14  PAGE 51


      00FF4632H   LINE      CODE     ---       #38
      ---         BLOCKEND  ---      ---       LVL=0

      00FF3F93H   BLOCK     CODE     ---       LVL=0
      00FF3F93H   LINE      CODE     ---       #40
      00FF3F93H   LINE      CODE     ---       #41
      00FF3F95H   LINE      CODE     ---       #47
      00FF3F98H   LINE      CODE     ---       #48
      00FF3F9BH   LINE      CODE     ---       #49
      00FF3F9EH   LINE      CODE     ---       #50
      00FF3F9FH   LINE      CODE     ---       #51
      00FF3FA0H   LINE      CODE     ---       #52
      00FF3FA1H   LINE      CODE     ---       #53
      00FF3FA2H   LINE      CODE     ---       #54
      00FF3FA3H   LINE      CODE     ---       #55
      00FF3FB3H   LINE      CODE     ---       #56
      00FF3FC3H   LINE      CODE     ---       #57
      00FF3FD0H   LINE      CODE     ---       #58
      00FF3FDDH   LINE      CODE     ---       #59
      00FF3FDDH   LINE      CODE     ---       #60
      00FF3FEBH   LINE      CODE     ---       #61
      00FF3FEEH   LINE      CODE     ---       #62
      00FF3FF1H   LINE      CODE     ---       #63
      00FF3FF3H   LINE      CODE     ---       #64
      ---         BLOCKEND  ---      ---       LVL=0

      00FF312BH   BLOCK     CODE     ---       LVL=0
      00FF312BH   LINE      CODE     ---       #66
      00FF312BH   LINE      CODE     ---       #68
      00FF3147H   LINE      CODE     ---       #69
      00FF3163H   LINE      CODE     ---       #70
      00FF317FH   LINE      CODE     ---       #71
      00FF319BH   LINE      CODE     ---       #72
      00FF31B7H   LINE      CODE     ---       #74
      00FF31D7H   LINE      CODE     ---       #75
      00FF31F7H   LINE      CODE     ---       #76
      00FF3217H   LINE      CODE     ---       #77
      00FF3237H   LINE      CODE     ---       #78
      00FF3257H   LINE      CODE     ---       #80
      ---         BLOCKEND  ---      ---       LVL=0

      00FF3477H   BLOCK     CODE     ---       LVL=0
      00FF3477H   LINE      CODE     ---       #83
      00FF3477H   LINE      CODE     ---       #85
      00FF348DH   LINE      CODE     ---       #86
      00FF34ADH   LINE      CODE     ---       #87
      00FF34E3H   LINE      CODE     ---       #88
      00FF3519H   LINE      CODE     ---       #90
      00FF351CH   LINE      CODE     ---       #91
      00FF3522H   LINE      CODE     ---       #92
      00FF3528H   LINE      CODE     ---       #93
      00FF352BH   LINE      CODE     ---       #94
      00FF352EH   LINE      CODE     ---       #97
      00FF3531H   LINE      CODE     ---       #98
      00FF3541H   LINE      CODE     ---       #99
      00FF354DH   LINE      CODE     ---       #100
      00FF3559H   LINE      CODE     ---       #102
      00FF3565H   LINE      CODE     ---       #104
      00FF3572H   LINE      CODE     ---       #105
      00FF357FH   LINE      CODE     ---       #106
      ---         BLOCKEND  ---      ---       LVL=0

      00FF47C2H   BLOCK     CODE     ---       LVL=0
      00FF47C2H   LINE      CODE     ---       #108
      00FF47C2H   LINE      CODE     ---       #109
L251 LINKER/LOCATER V4.66.93.0                                                        12/22/2024  10:45:14  PAGE 52


      00FF47C5H   LINE      CODE     ---       #110
      00FF47C8H   LINE      CODE     ---       #111
      00FF47CBH   LINE      CODE     ---       #112
      00FF47CEH   LINE      CODE     ---       #113
      00FF47D1H   LINE      CODE     ---       #114
      ---         BLOCKEND  ---      ---       LVL=0

      00FF2FF5H   BLOCK     CODE     ---       LVL=0
      00FF2FF5H   LINE      CODE     ---       #116
      00FF2FF5H   LINE      CODE     ---       #118
      00FF300BH   LINE      CODE     ---       #119
      00FF3021H   LINE      CODE     ---       #120
      00FF3041H   LINE      CODE     ---       #121
      00FF3061H   LINE      CODE     ---       #123
      00FF306EH   LINE      CODE     ---       #124
      00FF307AH   LINE      CODE     ---       #125
      00FF3086H   LINE      CODE     ---       #126
      00FF3092H   LINE      CODE     ---       #128
      00FF309FH   LINE      CODE     ---       #129
      00FF30ACH   LINE      CODE     ---       #132
      00FF30B9H   LINE      CODE     ---       #133
      00FF30C9H   LINE      CODE     ---       #135
      00FF30D6H   LINE      CODE     ---       #136
      00FF30E6H   LINE      CODE     ---       #138
      00FF30F3H   LINE      CODE     ---       #139
      00FF3103H   LINE      CODE     ---       #141
      00FF3110H   LINE      CODE     ---       #142
      00FF311DH   LINE      CODE     ---       #143
      00FF312AH   LINE      CODE     ---       #145
      ---         BLOCKEND  ---      ---       LVL=0

      00FF44AAH   BLOCK     CODE     ---       LVL=0
      00FF44AAH   LINE      CODE     ---       #147
      00FF44AAH   LINE      CODE     ---       #149
      00FF44B7H   LINE      CODE     ---       #150
      00FF44BAH   LINE      CODE     ---       #151
      00FF44BDH   LINE      CODE     ---       #152
      00FF44C0H   LINE      CODE     ---       #153
      00FF44C6H   LINE      CODE     ---       #154
      00FF44C8H   LINE      CODE     ---       #155
      00FF44CAH   LINE      CODE     ---       #156
      00FF44CCH   LINE      CODE     ---       #157
      00FF44D1H   LINE      CODE     ---       #158
      ---         BLOCKEND  ---      ---       LVL=0

      00FF4545H   BLOCK     CODE     ---       LVL=0
      00FF4545H   LINE      CODE     ---       #160
      00FF4545H   LINE      CODE     ---       #162
      00FF4552H   LINE      CODE     ---       #163
      00FF4555H   LINE      CODE     ---       #164
      00FF4558H   LINE      CODE     ---       #165
      00FF455BH   LINE      CODE     ---       #166
      00FF4561H   LINE      CODE     ---       #167
      00FF4563H   LINE      CODE     ---       #168
      00FF4565H   LINE      CODE     ---       #169
      ---         BLOCKEND  ---      ---       LVL=0

      00FF466CH   BLOCK     CODE     ---       LVL=0
      00FF466CH   LINE      CODE     ---       #171
      00FF466CH   LINE      CODE     ---       #173
      00FF4679H   LINE      CODE     ---       #174
      00FF467CH   LINE      CODE     ---       #175
      00FF4682H   LINE      CODE     ---       #176
      00FF4685H   LINE      CODE     ---       #177
      ---         BLOCKEND  ---      ---       LVL=0
L251 LINKER/LOCATER V4.66.93.0                                                        12/22/2024  10:45:14  PAGE 53



      00FF4633H   BLOCK     CODE     ---       LVL=0
      00FF4633H   LINE      CODE     ---       #179
      00FF4633H   LINE      CODE     ---       #182
      00FF4640H   LINE      CODE     ---       #183
      00FF4643H   LINE      CODE     ---       #184
      00FF4649H   LINE      CODE     ---       #185
      00FF464CH   LINE      CODE     ---       #186
      00FF464FH   LINE      CODE     ---       #188
      ---         BLOCKEND  ---      ---       LVL=0

      00FF3EC8H   BLOCK     CODE     ---       LVL=0
      00FF3EC8H   LINE      CODE     ---       #190
      00FF3EC8H   LINE      CODE     ---       #192
      00FF3ED8H   LINE      CODE     ---       #193
      00FF3EE5H   LINE      CODE     ---       #194
      00FF3EF5H   LINE      CODE     ---       #195
      00FF3F0DH   LINE      CODE     ---       #196
      00FF3F1DH   LINE      CODE     ---       #197
      00FF3F2DH   LINE      CODE     ---       #198
      ---         BLOCKEND  ---      ---       LVL=0

      00FF392DH   BLOCK     CODE     ---       LVL=0
      00FF392DH   LINE      CODE     ---       #201
      00FF392DH   LINE      CODE     ---       #203
      00FF3943H   LINE      CODE     ---       #205
      00FF3950H   LINE      CODE     ---       #206
      00FF395CH   LINE      CODE     ---       #207
      00FF3968H   LINE      CODE     ---       #208
      00FF3975H   LINE      CODE     ---       #209
      00FF3981H   LINE      CODE     ---       #211
      00FF398EH   LINE      CODE     ---       #212
      00FF399BH   LINE      CODE     ---       #213
      00FF39A8H   LINE      CODE     ---       #214
      00FF39B5H   LINE      CODE     ---       #215
      00FF39C5H   LINE      CODE     ---       #219
      00FF39CBH   LINE      CODE     ---       #221
      00FF39D8H   LINE      CODE     ---       #222
      00FF39E8H   LINE      CODE     ---       #223
      ---         BLOCKEND  ---      ---       LVL=0

      00FF47E1H   BLOCK     CODE     ---       LVL=0
      00FF47E1H   LINE      CODE     ---       #225
      00FF47E1H   LINE      CODE     ---       #227
      00FF47EEH   LINE      CODE     ---       #228
      ---         BLOCKEND  ---      ---       LVL=0

      00FF4480H   BLOCK     CODE     ---       LVL=0
      WR6         REGSYM    ---      WORD      presc
      00FF4480H   LINE      CODE     ---       #231
      00FF4480H   LINE      CODE     ---       #233
      00FF448FH   LINE      CODE     ---       #234
      00FF449CH   LINE      CODE     ---       #235
      00FF44A9H   LINE      CODE     ---       #236
      ---         BLOCKEND  ---      ---       LVL=0

      00FF45A2H   BLOCK     CODE     ---       LVL=0
      WR6         REGSYM    ---      WORD      relval
      00FF45A2H   LINE      CODE     ---       #238
      00FF45A2H   LINE      CODE     ---       #240
      00FF45B1H   LINE      CODE     ---       #241
      00FF45BEH   LINE      CODE     ---       #242
      ---         BLOCKEND  ---      ---       LVL=0

      00FF41E2H   BLOCK     CODE     ---       LVL=0
L251 LINKER/LOCATER V4.66.93.0                                                        12/22/2024  10:45:14  PAGE 54


      WR6         REGSYM    ---      WORD      newdc
      00FF41E2H   LINE      CODE     ---       #244
      00FF41E2H   LINE      CODE     ---       #246
      00FF4207H   LINE      CODE     ---       #247
      00FF422AH   LINE      CODE     ---       #248
      ---         BLOCKEND  ---      ---       LVL=0

      00FF45BFH   BLOCK     CODE     ---       LVL=0
      WR6         REGSYM    ---      WORD      compareone
      00FF45BFH   LINE      CODE     ---       #250
      00FF45BFH   LINE      CODE     ---       #252
      00FF45CEH   LINE      CODE     ---       #253
      00FF45DBH   LINE      CODE     ---       #254
      ---         BLOCKEND  ---      ---       LVL=0

      00FF45DCH   BLOCK     CODE     ---       LVL=0
      WR6         REGSYM    ---      WORD      comparetwo
      00FF45DCH   LINE      CODE     ---       #256
      00FF45DCH   LINE      CODE     ---       #258
      00FF45EBH   LINE      CODE     ---       #259
      00FF45F8H   LINE      CODE     ---       #260
      ---         BLOCKEND  ---      ---       LVL=0

      00FF45F9H   BLOCK     CODE     ---       LVL=0
      WR6         REGSYM    ---      WORD      comparethree
      00FF45F9H   LINE      CODE     ---       #262
      00FF45F9H   LINE      CODE     ---       #264
      00FF4608H   LINE      CODE     ---       #265
      00FF4615H   LINE      CODE     ---       #266
      ---         BLOCKEND  ---      ---       LVL=0

      ---         MODULE    ---      ---       phaseouts
      00FF42B5H   PUBLIC    CODE     ---       phaseAPWM?_
      00FF470EH   PUBLIC    CODE     ---       phaseAFLOAT?_
      00FF4723H   PUBLIC    CODE     ---       phaseALOW?_
      00FF42F0H   PUBLIC    CODE     ---       phaseBPWM?_
      00FF4738H   PUBLIC    CODE     ---       phaseBFLOAT?_
      00FF474DH   PUBLIC    CODE     ---       phaseBLOW?_
      00FF432BH   PUBLIC    CODE     ---       phaseCPWM?_
      00FF4762H   PUBLIC    CODE     ---       phaseCFLOAT?_
      00FF4777H   PUBLIC    CODE     ---       phaseCLOW?_
      00FF4686H   PUBLIC    CODE     ---       STEP_AB?_
      00FF46E2H   PUBLIC    CODE     ---       STEP_CB?_
      00FF469DH   PUBLIC    CODE     ---       STEP_CA?_
      00FF46B4H   PUBLIC    CODE     ---       STEP_BA?_
      00FF46F8H   PUBLIC    CODE     ---       STEP_BC?_
      00FF46CBH   PUBLIC    CODE     ---       STEP_AC?_
      00FF4805H   PUBLIC    CODE     ---       allOff?_
      00FF480FH   PUBLIC    CODE     ---       fullBrake?_
      00FF4819H   PUBLIC    CODE     ---       allpwm?_
      00FF4823H   PUBLIC    CODE     ---       twoChannelForward?_
      00FF482DH   PUBLIC    CODE     ---       twoChannelReverse?_
      00FF478CH   PUBLIC    CODE     ---       proportionalBrake?_
      00000105H   PUBLIC    EDATA    ---       comStep
      000000FFH   SFRSYM    DATA     BYTE      RSTCFG
      000000FDH   SFRSYM    DATA     BYTE      S4CON
      000000F8H   SFRSYM    DATA     BYTE      P7
      000000F4H   SFRSYM    DATA     BYTE      USBCON
      000000EFH   SFRSYM    DATA     BYTE      AUXINTIF
      000000EEH   SFRSYM    DATA     BYTE      IP3H
      000000E8H   SFRSYM    DATA     BYTE      P6
      000000E7H   SFRSYM    DATA     BYTE      CMPCR2
      000000E6H   SFRSYM    DATA     BYTE      CMPCR1
      000000DFH   SFRSYM    DATA     BYTE      IP3
      000000DEH   SFRSYM    DATA     BYTE      ADCCFG
L251 LINKER/LOCATER V4.66.93.0                                                        12/22/2024  10:45:14  PAGE 55


      000000DDH   SFRSYM    DATA     BYTE      T4T3M
      000000D1H   SFRSYM    DATA     BYTE      PSW1
      000000D0H   SFRSYM    DATA     BYTE      PSW
      000000CEH   SFRSYM    DATA     BYTE      SPCTL
      000000CDH   SFRSYM    DATA     BYTE      SPSTAT
      000000C8H   SFRSYM    DATA     BYTE      P5
      000000C7H   SFRSYM    DATA     BYTE      IAP_CONTR
      000000C1H   SFRSYM    DATA     BYTE      WDT_CONTR
      000000C0H   SFRSYM    DATA     BYTE      P4
      000000BFH   SFRSYM    DATA     BYTE      P_SW4
      000000BCH   SFRSYM    DATA     BYTE      ADC_CONTR
      000000BBH   SFRSYM    DATA     BYTE      P_SW3
      000000BAH   SFRSYM    DATA     BYTE      P_SW2
      000000B8H   SFRSYM    DATA     BYTE      IP
      000000B7H   SFRSYM    DATA     BYTE      IPH
      000000B6H   SFRSYM    DATA     BYTE      IP2H
      000000B5H   SFRSYM    DATA     BYTE      IP2
      000000B0H   SFRSYM    DATA     BYTE      P3
      000000AFH   SFRSYM    DATA     BYTE      IE2
      000000ACH   SFRSYM    DATA     BYTE      S3CON
      000000ABH   SFRSYM    DATA     BYTE      WKTCH
      000000A8H   SFRSYM    DATA     BYTE      IE
      000000A2H   SFRSYM    DATA     BYTE      P_SW1
      000000A0H   SFRSYM    DATA     BYTE      P2
      0000009DH   SFRSYM    DATA     BYTE      IRCBAND
      0000009AH   SFRSYM    DATA     BYTE      S2CON
      00000098H   SFRSYM    DATA     BYTE      SCON
      00000097H   SFRSYM    DATA     BYTE      AUXR2
      00000090H   SFRSYM    DATA     BYTE      P1
      0000008FH   SFRSYM    DATA     BYTE      INTCLKO
      0000008EH   SFRSYM    DATA     BYTE      AUXR
      00000089H   SFRSYM    DATA     BYTE      TMOD
      00000088H   SFRSYM    DATA     BYTE      TCON
      00000087H   SFRSYM    DATA     BYTE      PCON
      00000080H.5 SFRSYM    DATA     BIT       P05
      00000080H.4 SFRSYM    DATA     BIT       P04
      00000080H.3 SFRSYM    DATA     BIT       P03
      00000080H.2 SFRSYM    DATA     BIT       P02
      00000080H.1 SFRSYM    DATA     BIT       P01
      00000080H.0 SFRSYM    DATA     BIT       P00
      00000080H   SFRSYM    DATA     BYTE      P0

      00FF42B5H   BLOCK     CODE     ---       LVL=0
      00FF42B5H   LINE      CODE     ---       #16
      00FF42B5H   LINE      CODE     ---       #17
      00FF42BBH   LINE      CODE     ---       #18
      00FF42CBH   LINE      CODE     ---       #19
      00FF42CDH   LINE      CODE     ---       #20
      00FF42CFH   LINE      CODE     ---       #21
      00FF42DFH   LINE      CODE     ---       #22
      00FF42DFH   LINE      CODE     ---       #23
      00FF42EFH   LINE      CODE     ---       #24
      ---         BLOCKEND  ---      ---       LVL=0

      00FF470EH   BLOCK     CODE     ---       LVL=0
      00FF470EH   LINE      CODE     ---       #26
      00FF470EH   LINE      CODE     ---       #27
      00FF471EH   LINE      CODE     ---       #28
      00FF4720H   LINE      CODE     ---       #29
      00FF4722H   LINE      CODE     ---       #30
      ---         BLOCKEND  ---      ---       LVL=0

      00FF4723H   BLOCK     CODE     ---       LVL=0
      00FF4723H   LINE      CODE     ---       #32
      00FF4723H   LINE      CODE     ---       #33
L251 LINKER/LOCATER V4.66.93.0                                                        12/22/2024  10:45:14  PAGE 56


      00FF4733H   LINE      CODE     ---       #34
      00FF4735H   LINE      CODE     ---       #35
      00FF4737H   LINE      CODE     ---       #36
      ---         BLOCKEND  ---      ---       LVL=0

      00FF42F0H   BLOCK     CODE     ---       LVL=0
      00FF42F0H   LINE      CODE     ---       #40
      00FF42F0H   LINE      CODE     ---       #41
      00FF42F6H   LINE      CODE     ---       #42
      00FF4306H   LINE      CODE     ---       #43
      00FF4308H   LINE      CODE     ---       #44
      00FF430AH   LINE      CODE     ---       #45
      00FF431AH   LINE      CODE     ---       #46
      00FF431AH   LINE      CODE     ---       #47
      00FF432AH   LINE      CODE     ---       #48
      ---         BLOCKEND  ---      ---       LVL=0

      00FF4738H   BLOCK     CODE     ---       LVL=0
      00FF4738H   LINE      CODE     ---       #50
      00FF4738H   LINE      CODE     ---       #51
      00FF4748H   LINE      CODE     ---       #52
      00FF474AH   LINE      CODE     ---       #53
      00FF474CH   LINE      CODE     ---       #54
      ---         BLOCKEND  ---      ---       LVL=0

      00FF474DH   BLOCK     CODE     ---       LVL=0
      00FF474DH   LINE      CODE     ---       #56
      00FF474DH   LINE      CODE     ---       #57
      00FF475DH   LINE      CODE     ---       #58
      00FF475FH   LINE      CODE     ---       #59
      00FF4761H   LINE      CODE     ---       #60
      ---         BLOCKEND  ---      ---       LVL=0

      00FF432BH   BLOCK     CODE     ---       LVL=0
      00FF432BH   LINE      CODE     ---       #64
      00FF432BH   LINE      CODE     ---       #65
      00FF4331H   LINE      CODE     ---       #66
      00FF4341H   LINE      CODE     ---       #67
      00FF4343H   LINE      CODE     ---       #68
      00FF4345H   LINE      CODE     ---       #69
      00FF4355H   LINE      CODE     ---       #70
      00FF4355H   LINE      CODE     ---       #71
      00FF4365H   LINE      CODE     ---       #72
      ---         BLOCKEND  ---      ---       LVL=0

      00FF4762H   BLOCK     CODE     ---       LVL=0
      00FF4762H   LINE      CODE     ---       #74
      00FF4762H   LINE      CODE     ---       #75
      00FF4772H   LINE      CODE     ---       #76
      00FF4774H   LINE      CODE     ---       #77
      00FF4776H   LINE      CODE     ---       #78
      ---         BLOCKEND  ---      ---       LVL=0

      00FF4777H   BLOCK     CODE     ---       LVL=0
      00FF4777H   LINE      CODE     ---       #80
      00FF4777H   LINE      CODE     ---       #81
      00FF4787H   LINE      CODE     ---       #82
      00FF4789H   LINE      CODE     ---       #83
      00FF478BH   LINE      CODE     ---       #84
      ---         BLOCKEND  ---      ---       LVL=0

      00FF4686H   BLOCK     CODE     ---       LVL=0
      00FF4686H   LINE      CODE     ---       #88
      00FF4686H   LINE      CODE     ---       #90
      00FF4689H   LINE      CODE     ---       #91
L251 LINKER/LOCATER V4.66.93.0                                                        12/22/2024  10:45:14  PAGE 57


      00FF468CH   LINE      CODE     ---       #92
      00FF468FH   LINE      CODE     ---       #94
      00FF469CH   LINE      CODE     ---       #95
      ---         BLOCKEND  ---      ---       LVL=0

      00FF46E2H   BLOCK     CODE     ---       LVL=0
      00FF46E2H   LINE      CODE     ---       #98
      00FF46E2H   LINE      CODE     ---       #100
      00FF46E5H   LINE      CODE     ---       #101
      00FF46E8H   LINE      CODE     ---       #102
      00FF46EBH   LINE      CODE     ---       #104
      00FF46F7H   LINE      CODE     ---       #105
      ---         BLOCKEND  ---      ---       LVL=0

      00FF469DH   BLOCK     CODE     ---       LVL=0
      00FF469DH   LINE      CODE     ---       #109
      00FF469DH   LINE      CODE     ---       #111
      00FF46A0H   LINE      CODE     ---       #112
      00FF46A3H   LINE      CODE     ---       #113
      00FF46A6H   LINE      CODE     ---       #115
      00FF46B3H   LINE      CODE     ---       #116
      ---         BLOCKEND  ---      ---       LVL=0

      00FF46B4H   BLOCK     CODE     ---       LVL=0
      00FF46B4H   LINE      CODE     ---       #119
      00FF46B4H   LINE      CODE     ---       #121
      00FF46B7H   LINE      CODE     ---       #122
      00FF46BAH   LINE      CODE     ---       #123
      00FF46BDH   LINE      CODE     ---       #125
      00FF46CAH   LINE      CODE     ---       #126
      ---         BLOCKEND  ---      ---       LVL=0

      00FF46F8H   BLOCK     CODE     ---       LVL=0
      00FF46F8H   LINE      CODE     ---       #130
      00FF46F8H   LINE      CODE     ---       #132
      00FF46FBH   LINE      CODE     ---       #133
      00FF46FEH   LINE      CODE     ---       #134
      00FF4701H   LINE      CODE     ---       #136
      00FF470DH   LINE      CODE     ---       #137
      ---         BLOCKEND  ---      ---       LVL=0

      00FF46CBH   BLOCK     CODE     ---       LVL=0
      00FF46CBH   LINE      CODE     ---       #141
      00FF46CBH   LINE      CODE     ---       #143
      00FF46CEH   LINE      CODE     ---       #144
      00FF46D1H   LINE      CODE     ---       #145
      00FF46D4H   LINE      CODE     ---       #147
      00FF46E1H   LINE      CODE     ---       #148
      ---         BLOCKEND  ---      ---       LVL=0

      00FF4805H   BLOCK     CODE     ---       LVL=0
      00FF4805H   LINE      CODE     ---       #152
      00FF4805H   LINE      CODE     ---       #153
      00FF4808H   LINE      CODE     ---       #154
      00FF480BH   LINE      CODE     ---       #155
      00FF480EH   LINE      CODE     ---       #156
      ---         BLOCKEND  ---      ---       LVL=0

      00FF480FH   BLOCK     CODE     ---       LVL=0
      00FF480FH   LINE      CODE     ---       #160
      00FF480FH   LINE      CODE     ---       #161
      00FF4812H   LINE      CODE     ---       #162
      00FF4815H   LINE      CODE     ---       #163
      00FF4818H   LINE      CODE     ---       #164
      ---         BLOCKEND  ---      ---       LVL=0
L251 LINKER/LOCATER V4.66.93.0                                                        12/22/2024  10:45:14  PAGE 58



      00FF4819H   BLOCK     CODE     ---       LVL=0
      00FF4819H   LINE      CODE     ---       #167
      00FF4819H   LINE      CODE     ---       #168
      00FF481CH   LINE      CODE     ---       #169
      00FF481FH   LINE      CODE     ---       #170
      00FF4822H   LINE      CODE     ---       #171
      ---         BLOCKEND  ---      ---       LVL=0

      00FF4823H   BLOCK     CODE     ---       LVL=0
      00FF4823H   LINE      CODE     ---       #174
      00FF4823H   LINE      CODE     ---       #175
      00FF4826H   LINE      CODE     ---       #176
      00FF4829H   LINE      CODE     ---       #177
      00FF482CH   LINE      CODE     ---       #178
      ---         BLOCKEND  ---      ---       LVL=0

      00FF482DH   BLOCK     CODE     ---       LVL=0
      00FF482DH   LINE      CODE     ---       #180
      00FF482DH   LINE      CODE     ---       #181
      00FF4830H   LINE      CODE     ---       #182
      00FF4833H   LINE      CODE     ---       #183
      00FF4836H   LINE      CODE     ---       #184
      ---         BLOCKEND  ---      ---       LVL=0

      00FF478CH   BLOCK     CODE     ---       LVL=0
      00FF478CH   LINE      CODE     ---       #187
      00FF478CH   LINE      CODE     ---       #193
      00FF4799H   LINE      CODE     ---       #194
      00FF479BH   LINE      CODE     ---       #195
      00FF479DH   LINE      CODE     ---       #196
      00FF479FH   LINE      CODE     ---       #197
      ---         BLOCKEND  ---      ---       LVL=0

      ---         MODULE    ---      ---       stc8051u_it
      00FF10A6H   PUBLIC    CODE     ---       CMP_ISR?_
      00FF44D2H   PUBLIC    CODE     ---       TMR4_ISR?_
      00FF44F9H   PUBLIC    CODE     ---       TMR0_ISR?_
      00FF3A99H   PUBLIC    CODE     ---       PWMB_ISR?_
      0000011CH   PUBLIC    EDATA    BYTE      interrupt_time
      000000FFH   SFRSYM    DATA     BYTE      RSTCFG
      000000FDH   SFRSYM    DATA     BYTE      S4CON
      000000F8H   SFRSYM    DATA     BYTE      P7
      000000F4H   SFRSYM    DATA     BYTE      USBCON
      000000EFH   SFRSYM    DATA     BYTE      AUXINTIF
      000000EEH   SFRSYM    DATA     BYTE      IP3H
      000000E8H   SFRSYM    DATA     BYTE      P6
      000000E7H   SFRSYM    DATA     BYTE      CMPCR2
      000000E6H   SFRSYM    DATA     BYTE      CMPCR1
      000000DFH   SFRSYM    DATA     BYTE      IP3
      000000DEH   SFRSYM    DATA     BYTE      ADCCFG
      000000DDH   SFRSYM    DATA     BYTE      T4T3M
      000000D1H   SFRSYM    DATA     BYTE      PSW1
      000000D0H   SFRSYM    DATA     BYTE      PSW
      000000CEH   SFRSYM    DATA     BYTE      SPCTL
      000000CDH   SFRSYM    DATA     BYTE      SPSTAT
      000000C8H   SFRSYM    DATA     BYTE      P5
      000000C7H   SFRSYM    DATA     BYTE      IAP_CONTR
      000000C1H   SFRSYM    DATA     BYTE      WDT_CONTR
      000000C0H   SFRSYM    DATA     BYTE      P4
      000000BFH   SFRSYM    DATA     BYTE      P_SW4
      000000BCH   SFRSYM    DATA     BYTE      ADC_CONTR
      000000BBH   SFRSYM    DATA     BYTE      P_SW3
      000000BAH   SFRSYM    DATA     BYTE      P_SW2
      000000B8H   SFRSYM    DATA     BYTE      IP
L251 LINKER/LOCATER V4.66.93.0                                                        12/22/2024  10:45:14  PAGE 59


      000000B7H   SFRSYM    DATA     BYTE      IPH
      000000B6H   SFRSYM    DATA     BYTE      IP2H
      000000B5H   SFRSYM    DATA     BYTE      IP2
      000000B0H   SFRSYM    DATA     BYTE      P3
      000000AFH   SFRSYM    DATA     BYTE      IE2
      000000ACH   SFRSYM    DATA     BYTE      S3CON
      000000ABH   SFRSYM    DATA     BYTE      WKTCH
      000000A8H   SFRSYM    DATA     BYTE      IE
      000000A2H   SFRSYM    DATA     BYTE      P_SW1
      000000A0H   SFRSYM    DATA     BYTE      P2
      0000009DH   SFRSYM    DATA     BYTE      IRCBAND
      0000009AH   SFRSYM    DATA     BYTE      S2CON
      00000098H   SFRSYM    DATA     BYTE      SCON
      00000097H   SFRSYM    DATA     BYTE      AUXR2
      00000090H   SFRSYM    DATA     BYTE      P1
      0000008FH   SFRSYM    DATA     BYTE      INTCLKO
      0000008EH   SFRSYM    DATA     BYTE      AUXR
      00000089H   SFRSYM    DATA     BYTE      TMOD
      00000088H   SFRSYM    DATA     BYTE      TCON
      00000087H   SFRSYM    DATA     BYTE      PCON
      00000080H   SFRSYM    DATA     BYTE      P0

      00FF10A6H   BLOCK     CODE     ---       LVL=0
      00FF10A6H   LINE      CODE     ---       #19
      00FF10B9H   LINE      CODE     ---       #21
      00FF10BCH   LINE      CODE     ---       #22
      00FF10C8H   LINE      CODE     ---       #23
      ---         BLOCKEND  ---      ---       LVL=0

      00FF44D2H   BLOCK     CODE     ---       LVL=0
      00FF44D2H   LINE      CODE     ---       #25
      00FF44E5H   LINE      CODE     ---       #27
      00FF44E8H   LINE      CODE     ---       #28
      ---         BLOCKEND  ---      ---       LVL=0

      00FF44F9H   BLOCK     CODE     ---       LVL=0
      00FF44F9H   LINE      CODE     ---       #30
      00FF450CH   LINE      CODE     ---       #32
      00FF450FH   LINE      CODE     ---       #33
      ---         BLOCKEND  ---      ---       LVL=0

      00FF3A99H   BLOCK     CODE     ---       LVL=0
      00FF3A99H   LINE      CODE     ---       #35
      00FF3AACH   LINE      CODE     ---       #37
      00FF3AF1H   LINE      CODE     ---       #39
      00FF3B0AH   LINE      CODE     ---       #40
      00FF3B10H   LINE      CODE     ---       #41
      00FF3B1DH   LINE      CODE     ---       #42
      00FF3B1DH   LINE      CODE     ---       #45
      00FF3B27H   LINE      CODE     ---       #46
      00FF3B2AH   LINE      CODE     ---       #47
      00FF3B30H   LINE      CODE     ---       #48
      00FF3B35H   LINE      CODE     ---       #49
      ---         BLOCKEND  ---      ---       LVL=0

      ---         MODULE    ---      ---       AI8051U_32_MDU32
      00FF483EH   PUBLIC    CODE     ---       ?C?LIMUL
      00FF109EH   PUBLIC    CODE     ---       ?C?LMUL
      00FF487AH   PUBLIC    CODE     ---       ?C?SLDIV
      00FF1146H   PUBLIC    CODE     ---       ?C?ULDIV
      00FF4844H   PUBLIC    CODE     ---       ?C?ULIDIV
      000000EDH   SFRSYM    DATA     BYTE      DMAIR
      00000002H   SYMBOL    NUMBER   ---       DMA_LMUL
      00000006H   SYMBOL    NUMBER   ---       DMA_SLDIV
      00000004H   SYMBOL    NUMBER   ---       DMA_ULDIV
L251 LINKER/LOCATER V4.66.93.0                                                        12/22/2024  10:45:14  PAGE 60



      00FF109EH   BLOCK     CODE     NEAR LAB  LVL=0
      00FF109EH   LINE      CODE     ---       #20
      00FF10A1H   LINE      CODE     ---       #21
      ---         BLOCKEND  ---      ---       LVL=0

      00FF483EH   BLOCK     CODE     NEAR LAB  LVL=0
      00FF483EH   LINE      CODE     ---       #30
      00FF4840H   LINE      CODE     ---       #31
      00FF4843H   LINE      CODE     ---       #32
      ---         BLOCKEND  ---      ---       LVL=0

      00FF1146H   BLOCK     CODE     NEAR LAB  LVL=0
      00FF1146H   LINE      CODE     ---       #41
      00FF1149H   LINE      CODE     ---       #42
      ---         BLOCKEND  ---      ---       LVL=0

      00FF4844H   BLOCK     CODE     NEAR LAB  LVL=0
      00FF4844H   LINE      CODE     ---       #51
      00FF4846H   LINE      CODE     ---       #52
      00FF4849H   LINE      CODE     ---       #53
      ---         BLOCKEND  ---      ---       LVL=0

      00FF487AH   BLOCK     CODE     NEAR LAB  LVL=0
      00FF487AH   LINE      CODE     ---       #62
      00FF487DH   LINE      CODE     ---       #63
      ---         BLOCKEND  ---      ---       LVL=0

      ---         MODULE    ---      ---       AI8051U_32_TFPU
      00FF4850H   PUBLIC    CODE     ---       ?C?CASTF
      00FF4856H   PUBLIC    CODE     ---       ?C?FCASTC
      00FF485CH   PUBLIC    CODE     ---       ?C?FCASTI
      00FF48A2H   PUBLIC    CODE     ---       ?C?FCASTL
      00FF487EH   PUBLIC    CODE     ---       ?C?FPADD
      00FF47EFH   PUBLIC    CODE     ---       ?C?FPCMP3
      00FF488AH   PUBLIC    CODE     ---       ?C?FPDIV
      00FF4886H   PUBLIC    CODE     ---       ?C?FPMUL
      00FF1004H   PUBLIC    CODE     ---       ?C?FPNEG
      00FF4882H   PUBLIC    CODE     ---       ?C?FPSUB
      00FF489EH   PUBLIC    CODE     ---       ATAN?_
      00FF4896H   PUBLIC    CODE     ---       COS?_
      00FF4837H   PUBLIC    CODE     ---       FABS?_
      00FF48A6H   PUBLIC    CODE     ---       FCLEX
      00FF48AAH   PUBLIC    CODE     ---       FINIT
      00FF486EH   PUBLIC    CODE     ---       FPCRR
      00FF4874H   PUBLIC    CODE     ---       FPCRW
      00FF4862H   PUBLIC    CODE     ---       FPSRR
      00FF4868H   PUBLIC    CODE     ---       FPSRW
      00FF484AH   PUBLIC    CODE     ---       FXAM
      00FF4892H   PUBLIC    CODE     ---       SIN?_
      00FF488EH   PUBLIC    CODE     ---       SQRT?_
      00FF489AH   PUBLIC    CODE     ---       TAN?_
      000000E0H   SFRSYM    DATA     BYTE      ACC
      000000EDH   SFRSYM    DATA     BYTE      DMAIR
      00000083H   SFRSYM    DATA     BYTE      DPH
      00000082H   SFRSYM    DATA     BYTE      DPL
      0000001CH   SYMBOL    NUMBER   ---       DMA_FPADD
      00000030H   SYMBOL    NUMBER   ---       DMA_FPATAN
      00000027H   SYMBOL    NUMBER   ---       DMA_FPCLD
      00000032H   SYMBOL    NUMBER   ---       DMA_FPCLEX
      00000021H   SYMBOL    NUMBER   ---       DMA_FPCMP
      0000002EH   SYMBOL    NUMBER   ---       DMA_FPCOS
      00000035H   SYMBOL    NUMBER   ---       DMA_FPCRR
      00000036H   SYMBOL    NUMBER   ---       DMA_FPCRW
      00000023H   SYMBOL    NUMBER   ---       DMA_FPCST
L251 LINKER/LOCATER V4.66.93.0                                                        12/22/2024  10:45:14  PAGE 61


      0000001FH   SYMBOL    NUMBER   ---       DMA_FPDIV
      00000028H   SYMBOL    NUMBER   ---       DMA_FPILD
      00000031H   SYMBOL    NUMBER   ---       DMA_FPINIT
      00000024H   SYMBOL    NUMBER   ---       DMA_FPIST
      00000029H   SYMBOL    NUMBER   ---       DMA_FPLLD
      00000025H   SYMBOL    NUMBER   ---       DMA_FPLST
      0000001EH   SYMBOL    NUMBER   ---       DMA_FPMUL
      0000002DH   SYMBOL    NUMBER   ---       DMA_FPSIN
      00000020H   SYMBOL    NUMBER   ---       DMA_FPSQRT
      00000033H   SYMBOL    NUMBER   ---       DMA_FPSRR
      00000034H   SYMBOL    NUMBER   ---       DMA_FPSRW
      0000001DH   SYMBOL    NUMBER   ---       DMA_FPSUB
      0000002FH   SYMBOL    NUMBER   ---       DMA_FPTAN
      00000022H   SYMBOL    NUMBER   ---       DMA_FPXAM
      00000001H   SYMBOL    NUMBER   ---       FP_CONV_EN
      00000001H   SYMBOL    NUMBER   ---       FP_REGS_EN
      00000001H   SYMBOL    NUMBER   ---       FP_TRIG_EN

      00FF487EH   BLOCK     CODE     NEAR LAB  LVL=0
      00FF487EH   LINE      CODE     ---       #71
      00FF4881H   LINE      CODE     ---       #72
      ---         BLOCKEND  ---      ---       LVL=0

      00FF4882H   BLOCK     CODE     NEAR LAB  LVL=0
      00FF4882H   LINE      CODE     ---       #81
      00FF4885H   LINE      CODE     ---       #82
      ---         BLOCKEND  ---      ---       LVL=0

      00FF4886H   BLOCK     CODE     NEAR LAB  LVL=0
      00FF4886H   LINE      CODE     ---       #91
      00FF4889H   LINE      CODE     ---       #92
      ---         BLOCKEND  ---      ---       LVL=0

      00FF488AH   BLOCK     CODE     NEAR LAB  LVL=0
      00FF488AH   LINE      CODE     ---       #101
      00FF488DH   LINE      CODE     ---       #102
      ---         BLOCKEND  ---      ---       LVL=0

      00FF488EH   BLOCK     CODE     NEAR LAB  LVL=0
      00FF488EH   LINE      CODE     ---       #111
      00FF4891H   LINE      CODE     ---       #112
      ---         BLOCKEND  ---      ---       LVL=0

      00FF47EFH   BLOCK     CODE     NEAR LAB  LVL=0
      00FF47EFH   LINE      CODE     ---       #122
      00FF47F2H   LINE      CODE     ---       #123
      00FF47F4H   LINE      CODE     ---       #124
      00FF47F6H   LINE      CODE     ---       #125
      00FF47F8H   LINE      CODE     ---       #126
      00FF47FAH   LINE      CODE     ---       #127
      ---         BLOCKEND  ---      ---       LVL=0

      00FF484AH   BLOCK     CODE     NEAR LAB  LVL=0
      00FF484AH   LINE      CODE     ---       #136
      00FF484DH   LINE      CODE     ---       #137
      00FF484FH   LINE      CODE     ---       #138
      ---         BLOCKEND  ---      ---       LVL=0

      00FF1004H   BLOCK     CODE     NEAR LAB  LVL=0
      00FF1004H   LINE      CODE     ---       #147
      00FF1006H   LINE      CODE     ---       #148
      00FF1008H   LINE      CODE     ---       #149
      00FF100AH   LINE      CODE     ---       #150
      ---         BLOCKEND  ---      ---       LVL=0

L251 LINKER/LOCATER V4.66.93.0                                                        12/22/2024  10:45:14  PAGE 62


      00FF4837H   BLOCK     CODE     NEAR LAB  LVL=0
      00FF4837H   LINE      CODE     ---       #159
      00FF4839H   LINE      CODE     ---       #160
      00FF483BH   LINE      CODE     ---       #161
      00FF483DH   LINE      CODE     ---       #162
      ---         BLOCKEND  ---      ---       LVL=0

      00FF4892H   BLOCK     CODE     NEAR LAB  LVL=0
      00FF4892H   LINE      CODE     ---       #174
      00FF4895H   LINE      CODE     ---       #175
      ---         BLOCKEND  ---      ---       LVL=0

      00FF4896H   BLOCK     CODE     NEAR LAB  LVL=0
      00FF4896H   LINE      CODE     ---       #184
      00FF4899H   LINE      CODE     ---       #185
      ---         BLOCKEND  ---      ---       LVL=0

      00FF489AH   BLOCK     CODE     NEAR LAB  LVL=0
      00FF489AH   LINE      CODE     ---       #194
      00FF489DH   LINE      CODE     ---       #195
      ---         BLOCKEND  ---      ---       LVL=0

      00FF489EH   BLOCK     CODE     NEAR LAB  LVL=0
      00FF489EH   LINE      CODE     ---       #204
      00FF48A1H   LINE      CODE     ---       #205
      ---         BLOCKEND  ---      ---       LVL=0

      00FF4850H   BLOCK     CODE     NEAR LAB  LVL=0
      00FF4850H   LINE      CODE     ---       #220
      00FF4853H   LINE      CODE     ---       #221
      00FF4855H   LINE      CODE     ---       #222
      ---         BLOCKEND  ---      ---       LVL=0

      00FF4856H   BLOCK     CODE     NEAR LAB  LVL=0
      00FF4856H   LINE      CODE     ---       #231
      00FF4858H   LINE      CODE     ---       #232
      00FF485BH   LINE      CODE     ---       #233
      ---         BLOCKEND  ---      ---       LVL=0

      00FF485CH   BLOCK     CODE     NEAR LAB  LVL=0
      00FF485CH   LINE      CODE     ---       #242
      00FF485EH   LINE      CODE     ---       #243
      00FF4861H   LINE      CODE     ---       #244
      ---         BLOCKEND  ---      ---       LVL=0

      00FF48A2H   BLOCK     CODE     NEAR LAB  LVL=0
      00FF48A2H   LINE      CODE     ---       #253
      00FF48A5H   LINE      CODE     ---       #254
      ---         BLOCKEND  ---      ---       LVL=0

      00FF48A6H   BLOCK     CODE     NEAR LAB  LVL=0
      00FF48A6H   LINE      CODE     ---       #270
      00FF48A9H   LINE      CODE     ---       #271
      ---         BLOCKEND  ---      ---       LVL=0

      00FF48AAH   BLOCK     CODE     NEAR LAB  LVL=0
      00FF48AAH   LINE      CODE     ---       #280
      00FF48ADH   LINE      CODE     ---       #281
      ---         BLOCKEND  ---      ---       LVL=0

      00FF4862H   BLOCK     CODE     NEAR LAB  LVL=0
      00FF4862H   LINE      CODE     ---       #290
      00FF4865H   LINE      CODE     ---       #291
      00FF4867H   LINE      CODE     ---       #292
      ---         BLOCKEND  ---      ---       LVL=0
L251 LINKER/LOCATER V4.66.93.0                                                        12/22/2024  10:45:14  PAGE 63



      00FF4868H   BLOCK     CODE     NEAR LAB  LVL=0
      00FF4868H   LINE      CODE     ---       #301
      00FF486AH   LINE      CODE     ---       #302
      00FF486DH   LINE      CODE     ---       #303
      ---         BLOCKEND  ---      ---       LVL=0

      00FF486EH   BLOCK     CODE     NEAR LAB  LVL=0
      00FF486EH   LINE      CODE     ---       #312
      00FF4871H   LINE      CODE     ---       #313
      00FF4873H   LINE      CODE     ---       #314
      ---         BLOCKEND  ---      ---       LVL=0

      00FF4874H   BLOCK     CODE     NEAR LAB  LVL=0
      00FF4874H   LINE      CODE     ---       #323
      00FF4876H   LINE      CODE     ---       #324
      00FF4879H   LINE      CODE     ---       #325
      ---         BLOCKEND  ---      ---       LVL=0

      ---         MODULE    ---      ---       ?C_START
      00FF0000H   PUBLIC    CODE     ---       ?C?STARTUP
      00FF0000H   PUBLIC    CODE     ---       ?C_STARTUP

      ---         MODULE    ---      ---       ?C?INITEDATA
      00FF3E6BH   PUBLIC    CODE     ---       ?C?INITEDATA

      ---         MODULE    ---      ---       ?C?INITHDATA
      00FF3E94H   PUBLIC    CODE     ---       ?C?INITHDATA

      ---         MODULE    ---      ---       ?C?SIDIV
      00FF4366H   PUBLIC    CODE     ---       ?C?SIDIV

      ---         MODULE    ---      ---       STRNCPY
      00FF4398H   PUBLIC    CODE     ---       strncpy?_

      ---         MODULE    ---      ---       memcmp
      00FF43C8H   PUBLIC    CODE     ---       memcmp?_

      ---         MODULE    ---      ---       memcpy
      00FF4520H   PUBLIC    CODE     ---       memcpy?_

      ---         MODULE    ---      ---       ?C?INITEDATA_END
      00FF52DCH   PUBLIC    HCONST   WORD      ?C?INITEDATA_END

      ---         MODULE    ---      ---       ?C?INITHDATA_END
      00FF509AH   PUBLIC    HCONST   WORD      ?C?INITHDATA_END



*** WARNING L16: UNCALLED SEGMENT, IGNORED FOR OVERLAY PROCESS
    NAME:    playBrushedStartupTune?_/sounds

*** WARNING L16: UNCALLED SEGMENT, IGNORED FOR OVERLAY PROCESS
    NAME:    playDuskingTune?_/sounds

*** WARNING L16: UNCALLED SEGMENT, IGNORED FOR OVERLAY PROCESS
    NAME:    pause?_/sounds

*** WARNING L16: UNCALLED SEGMENT, IGNORED FOR OVERLAY PROCESS
    NAME:    setInputPolarityRising?_/input

*** WARNING L16: UNCALLED SEGMENT, IGNORED FOR OVERLAY PROCESS
    NAME:    enableHalfTransferInt?_/input

*** WARNING L16: UNCALLED SEGMENT, IGNORED FOR OVERLAY PROCESS
L251 LINKER/LOCATER V4.66.93.0                                                        12/22/2024  10:45:14  PAGE 64


    NAME:    STEP_AB?_/phaseouts

*** WARNING L16: UNCALLED SEGMENT, IGNORED FOR OVERLAY PROCESS
    NAME:    STEP_CB?_/phaseouts

*** WARNING L16: UNCALLED SEGMENT, IGNORED FOR OVERLAY PROCESS
    NAME:    STEP_CA?_/phaseouts

*** WARNING L16: UNCALLED SEGMENT, IGNORED FOR OVERLAY PROCESS
    NAME:    STEP_BA?_/phaseouts

*** WARNING L16: UNCALLED SEGMENT, IGNORED FOR OVERLAY PROCESS
    NAME:    STEP_BC?_/phaseouts

*** WARNING L16: UNCALLED SEGMENT, IGNORED FOR OVERLAY PROCESS
    NAME:    STEP_AC?_/phaseouts

*** WARNING L16: UNCALLED SEGMENT, IGNORED FOR OVERLAY PROCESS
    NAME:    twoChannelForward?_/phaseouts

*** WARNING L16: UNCALLED SEGMENT, IGNORED FOR OVERLAY PROCESS
    NAME:    twoChannelReverse?_/phaseouts

*** WARNING L16: UNCALLED SEGMENT, IGNORED FOR OVERLAY PROCESS
    NAME:    FPSUB/AI8051U_32_TFPU

*** WARNING L16: UNCALLED SEGMENT, IGNORED FOR OVERLAY PROCESS
    NAME:    FPMUL/AI8051U_32_TFPU

*** WARNING L16: UNCALLED SEGMENT, IGNORED FOR OVERLAY PROCESS
    NAME:    SQRT/AI8051U_32_TFPU

*** WARNING L16: UNCALLED SEGMENT, IGNORED FOR OVERLAY PROCESS
    NAME:    FXAM/AI8051U_32_TFPU

*** WARNING L16: UNCALLED SEGMENT, IGNORED FOR OVERLAY PROCESS
    NAME:    FCHS/AI8051U_32_TFPU

*** WARNING L16: UNCALLED SEGMENT, IGNORED FOR OVERLAY PROCESS
    NAME:    FABS/AI8051U_32_TFPU

*** WARNING L16: UNCALLED SEGMENT, IGNORED FOR OVERLAY PROCESS
    NAME:    SIN/AI8051U_32_TFPU

*** WARNING L16: UNCALLED SEGMENT, IGNORED FOR OVERLAY PROCESS
    NAME:    COS/AI8051U_32_TFPU

*** WARNING L16: UNCALLED SEGMENT, IGNORED FOR OVERLAY PROCESS
    NAME:    TAN/AI8051U_32_TFPU

*** WARNING L16: UNCALLED SEGMENT, IGNORED FOR OVERLAY PROCESS
    NAME:    ATAN/AI8051U_32_TFPU

*** WARNING L16: UNCALLED SEGMENT, IGNORED FOR OVERLAY PROCESS
    NAME:    FCASTC/AI8051U_32_TFPU

*** WARNING L16: UNCALLED SEGMENT, IGNORED FOR OVERLAY PROCESS
    NAME:    FCLEX/AI8051U_32_TFPU

*** WARNING L16: UNCALLED SEGMENT, IGNORED FOR OVERLAY PROCESS
    NAME:    FINIT/AI8051U_32_TFPU

*** WARNING L16: UNCALLED SEGMENT, IGNORED FOR OVERLAY PROCESS
    NAME:    FPSRR/AI8051U_32_TFPU

L251 LINKER/LOCATER V4.66.93.0                                                        12/22/2024  10:45:14  PAGE 65


*** WARNING L16: UNCALLED SEGMENT, IGNORED FOR OVERLAY PROCESS
    NAME:    FPSRW/AI8051U_32_TFPU

*** WARNING L16: UNCALLED SEGMENT, IGNORED FOR OVERLAY PROCESS
    NAME:    FPCRR/AI8051U_32_TFPU

*** WARNING L16: UNCALLED SEGMENT, IGNORED FOR OVERLAY PROCESS
    NAME:    FPCRW/AI8051U_32_TFPU

Program Size: data=32.0 edata+hdata=509 xdata=2011 const=2621 code=14507
L251 RUN COMPLETE.  30 WARNING(S),  0 ERROR(S)
